(dp1
S'output'
p2
S"<class 'applications.BingApi.modules.bingapi_w.BingException'> AppID is not functioning properly. Please refer to the HelpUrl to get more information."
p3
sS'layer'
p4
S'/Users/massimodipierro/Dropbox/web2py-appliances/web2py/applications/BingApi/controllers/default.py'
p5
sS'code'
p6
S'#########################################################################\n## This is a samples controller\n## - index is the default action of any application\n## - user is required for authentication and authorization\n## - download is for downloading files uploaded in the db (does streaming)\n## - call exposes all registered services (none by default)\n#########################################################################  \n\nexec(\'from applications.%s.modules.bingapi_w import Bing\' % request.application)\nBING_APPID=\'25187A3B438492061BC2B82AB10E1D7394F0EB82\'\n\nresponse.title="Bing Interface"\nresponse.subtitle="Full Web Search from web2py"\n\ndef index():\n    """\n    example action using the internationalization operator T and flash\n    rendered by views/default/index.html or views/generic.html\n    """\n    form=FORM(INPUT(_name=\'q\',requires=IS_NOT_EMPTY()),\n              INPUT(_type=\'submit\',_value=\'Search\'))\n    items=[]\n    if form.accepts(request,session):\n        bing = Bing(BING_APPID)\n        res = bing.do_web_search(request.vars.q)\n        items = res[\'SearchResponse\'][\'Web\'][\'Results\']\n    return dict(form=form,items=items)\n\ndef download():\n    """\n    allows downloading of uploaded files\n    http://..../[app]/default/download/[filename]\n    """\n    return response.download(request,db)\n\nresponse._vars=response._caller(index)\n'
p7
sS'snapshot'
p8
(dp9
S'exception'
p10
(dp11
S'__hash__'
p12
S"<method-wrapper '__hash__' of BingException object at 0xa59508>"
p13
sS'__module__'
p14
S"'applications.BingApi.modules.bingapi_w'"
p15
sS'__reduce_ex__'
p16
S'<built-in method __reduce_ex__ of BingException object at 0xa59508>'
p17
sS'__getslice__'
p18
S"<method-wrapper '__getslice__' of BingException object at 0xa59508>"
p19
sS'__getitem__'
p20
S"<method-wrapper '__getitem__' of BingException object at 0xa59508>"
p21
sS'__setstate__'
p22
S'<built-in method __setstate__ of BingException object at 0xa59508>'
p23
sS'__reduce__'
p24
S'<built-in method __reduce__ of BingException object at 0xa59508>'
p25
sS'__str__'
p26
S"<method-wrapper '__str__' of BingException object at 0xa59508>"
p27
sS'args'
p28
S"(u'AppID is not functioning properly. Please refer to the HelpUrl to get more information.',)"
p29
sS'__getattribute__'
p30
S"<method-wrapper '__getattribute__' of BingException object at 0xa59508>"
p31
sS'__class__'
p32
S"<class 'applications.BingApi.modules.bingapi_w.BingException'>"
p33
sS'__delattr__'
p34
S"<method-wrapper '__delattr__' of BingException object at 0xa59508>"
p35
sS'__repr__'
p36
S"<method-wrapper '__repr__' of BingException object at 0xa59508>"
p37
sS'__setattr__'
p38
S"<method-wrapper '__setattr__' of BingException object at 0xa59508>"
p39
sS'__dict__'
p40
S'{}'
p41
sS'__weakref__'
p42
S'None'
p43
sS'__doc__'
p44
S'None'
p45
sS'__init__'
p46
S"<method-wrapper '__init__' of BingException object at 0xa59508>"
p47
sS'__new__'
p48
S'<built-in method __new__ of type object at 0xe6e70>'
p49
ssS'evalue'
p50
S'AppID is not functioning properly. Please refer to the HelpUrl to get more information.'
p51
sS'request'
p52
ccopy_reg
_reconstructor
p53
(cgluon.html
BEAUTIFY
p54
c__builtin__
object
p55
NtRp56
(dp57
S'attributes'
p58
(dp59
sS'components'
p60
(lp61
g53
(cgluon.html
TABLE
p62
g55
NtRp63
(dp64
g58
(dp65
S'level'
p66
I5
ssS'parent'
p67
Nsg60
(lp68
g53
(cgluon.html
TR
p69
g55
NtRp70
(dp71
g58
(dp72
sg67
g63
sg60
(lp73
g53
(cgluon.html
TD
p74
g55
NtRp75
(dp76
g58
(dp77
S'_style'
p78
S'font-weight:bold;vertical-align:top'
p79
ssg67
g70
sg60
(lp80
S'ajax'
p81
asbag53
(g74
g55
NtRp82
(dp83
g58
(dp84
S'_valign'
p85
S'top'
p86
ssg67
g70
sg60
(lp87
S':'
asbag53
(g74
g55
NtRp88
(dp89
g58
(dp90
sg67
g70
sg60
(lp91
g53
(g54
g55
NtRp92
(dp93
g58
(dp94
g66
I5
ssg67
g88
sg60
(lp95
S'False'
p96
asbasbasbag53
(g69
g55
NtRp97
(dp98
g58
(dp99
sg67
g63
sg60
(lp100
g53
(g74
g55
NtRp101
(dp102
g58
(dp103
g78
g79
ssg67
g97
sg60
(lp104
S'application'
p105
asbag53
(g74
g55
NtRp106
(dp107
g58
(dp108
g85
g86
ssg67
g97
sg60
(lp109
S':'
asbag53
(g74
g55
NtRp110
(dp111
g58
(dp112
sg67
g97
sg60
(lp113
g53
(g54
g55
NtRp114
(dp115
g58
(dp116
g66
I5
ssg67
g110
sg60
(lp117
S'BingApi'
p118
asbasbasbag53
(g69
g55
NtRp119
(dp120
g58
(dp121
sg67
g63
sg60
(lp122
g53
(g74
g55
NtRp123
(dp124
g58
(dp125
g78
g79
ssg67
g119
sg60
(lp126
g28
asbag53
(g74
g55
NtRp127
(dp128
g58
(dp129
g85
g86
ssg67
g119
sg60
(lp130
S':'
asbag53
(g74
g55
NtRp131
(dp132
g58
(dp133
sg67
g119
sg60
(lp134
g53
(g54
g55
NtRp135
(dp136
g58
(dp137
g66
I5
ssg67
g131
sg60
(lp138
g53
(g62
g55
NtRp139
(dp140
g58
(dp141
g66
I4
ssg67
Nsg60
(lp142
sbasbasbasbag53
(g69
g55
NtRp143
(dp144
g58
(dp145
sg67
g63
sg60
(lp146
g53
(g74
g55
NtRp147
(dp148
g58
(dp149
g78
g79
ssg67
g143
sg60
(lp150
S'body'
p151
asbag53
(g74
g55
NtRp152
(dp153
g58
(dp154
g85
g86
ssg67
g143
sg60
(lp155
S':'
asbag53
(g74
g55
NtRp156
(dp157
g58
(dp158
sg67
g143
sg60
(lp159
g53
(g54
g55
NtRp160
(dp161
g58
(dp162
g66
I5
ssg67
g156
sg60
(lp163
S"<open file '<fdopen>', mode 'w+b' at 0x6f0188>"
p164
asbasbasbag53
(g69
g55
NtRp165
(dp166
g58
(dp167
sg67
g63
sg60
(lp168
g53
(g74
g55
NtRp169
(dp170
g58
(dp171
g78
g79
ssg67
g165
sg60
(lp172
S'client'
p173
asbag53
(g74
g55
NtRp174
(dp175
g58
(dp176
g85
g86
ssg67
g165
sg60
(lp177
S':'
asbag53
(g74
g55
NtRp178
(dp179
g58
(dp180
sg67
g165
sg60
(lp181
g53
(g54
g55
NtRp182
(dp183
g58
(dp184
g66
I5
ssg67
g178
sg60
(lp185
S'127.0.0.1'
p186
asbasbasbag53
(g69
g55
NtRp187
(dp188
g58
(dp189
sg67
g63
sg60
(lp190
g53
(g74
g55
NtRp191
(dp192
g58
(dp193
g78
g79
ssg67
g187
sg60
(lp194
S'controller'
p195
asbag53
(g74
g55
NtRp196
(dp197
g58
(dp198
g85
g86
ssg67
g187
sg60
(lp199
S':'
asbag53
(g74
g55
NtRp200
(dp201
g58
(dp202
sg67
g187
sg60
(lp203
g53
(g54
g55
NtRp204
(dp205
g58
(dp206
g66
I5
ssg67
g200
sg60
(lp207
S'default'
p208
asbasbasbag53
(g69
g55
NtRp209
(dp210
g58
(dp211
sg67
g63
sg60
(lp212
g53
(g74
g55
NtRp213
(dp214
g58
(dp215
g78
g79
ssg67
g209
sg60
(lp216
S'cookies'
p217
asbag53
(g74
g55
NtRp218
(dp219
g58
(dp220
g85
g86
ssg67
g209
sg60
(lp221
S':'
asbag53
(g74
g55
NtRp222
(dp223
g58
(dp224
sg67
g209
sg60
(lp225
g53
(g54
g55
NtRp226
(dp227
g58
(dp228
g66
I5
ssg67
g222
sg60
(lp229
g53
(g62
g55
NtRp230
(dp231
g58
(dp232
g66
I4
ssg67
Nsg60
(lp233
g53
(g69
g55
NtRp234
(dp235
g58
(dp236
sg67
g230
sg60
(lp237
g53
(g74
g55
NtRp238
(dp239
g58
(dp240
g78
g79
ssg67
g234
sg60
(lp241
S'session_id_admin'
p242
asbag53
(g74
g55
NtRp243
(dp244
g58
(dp245
g85
g86
ssg67
g234
sg60
(lp246
S':'
asbag53
(g74
g55
NtRp247
(dp248
g58
(dp249
sg67
g234
sg60
(lp250
g53
(g54
g55
NtRp251
(dp252
g58
(dp253
g66
I4
ssg67
g247
sg60
(lp254
g53
(g62
g55
NtRp255
(dp256
g58
(dp257
g66
I3
ssg67
Nsg60
(lp258
g53
(g69
g55
NtRp259
(dp260
g58
(dp261
sg67
g255
sg60
(lp262
g53
(g74
g55
NtRp263
(dp264
g58
(dp265
g78
g79
ssg67
g259
sg60
(lp266
S'comment'
p267
asbag53
(g74
g55
NtRp268
(dp269
g58
(dp270
g85
g86
ssg67
g259
sg60
(lp271
S':'
asbag53
(g74
g55
NtRp272
(dp273
g58
(dp274
sg67
g259
sg60
(lp275
g53
(g54
g55
NtRp276
(dp277
g58
(dp278
g66
I3
ssg67
g272
sg60
(lp279
S''
asbasbasbag53
(g69
g55
NtRp280
(dp281
g58
(dp282
sg67
g255
sg60
(lp283
g53
(g74
g55
NtRp284
(dp285
g58
(dp286
g78
g79
ssg67
g280
sg60
(lp287
S'domain'
p288
asbag53
(g74
g55
NtRp289
(dp290
g58
(dp291
g85
g86
ssg67
g280
sg60
(lp292
S':'
asbag53
(g74
g55
NtRp293
(dp294
g58
(dp295
sg67
g280
sg60
(lp296
g53
(g54
g55
NtRp297
(dp298
g58
(dp299
g66
I3
ssg67
g293
sg60
(lp300
S''
asbasbasbag53
(g69
g55
NtRp301
(dp302
g58
(dp303
sg67
g255
sg60
(lp304
g53
(g74
g55
NtRp305
(dp306
g58
(dp307
g78
g79
ssg67
g301
sg60
(lp308
S'expires'
p309
asbag53
(g74
g55
NtRp310
(dp311
g58
(dp312
g85
g86
ssg67
g301
sg60
(lp313
S':'
asbag53
(g74
g55
NtRp314
(dp315
g58
(dp316
sg67
g301
sg60
(lp317
g53
(g54
g55
NtRp318
(dp319
g58
(dp320
g66
I3
ssg67
g314
sg60
(lp321
S''
asbasbasbag53
(g69
g55
NtRp322
(dp323
g58
(dp324
sg67
g255
sg60
(lp325
g53
(g74
g55
NtRp326
(dp327
g58
(dp328
g78
g79
ssg67
g322
sg60
(lp329
S'max-age'
p330
asbag53
(g74
g55
NtRp331
(dp332
g58
(dp333
g85
g86
ssg67
g322
sg60
(lp334
S':'
asbag53
(g74
g55
NtRp335
(dp336
g58
(dp337
sg67
g322
sg60
(lp338
g53
(g54
g55
NtRp339
(dp340
g58
(dp341
g66
I3
ssg67
g335
sg60
(lp342
S''
asbasbasbag53
(g69
g55
NtRp343
(dp344
g58
(dp345
sg67
g255
sg60
(lp346
g53
(g74
g55
NtRp347
(dp348
g58
(dp349
g78
g79
ssg67
g343
sg60
(lp350
S'path'
p351
asbag53
(g74
g55
NtRp352
(dp353
g58
(dp354
g85
g86
ssg67
g343
sg60
(lp355
S':'
asbag53
(g74
g55
NtRp356
(dp357
g58
(dp358
sg67
g343
sg60
(lp359
g53
(g54
g55
NtRp360
(dp361
g58
(dp362
g66
I3
ssg67
g356
sg60
(lp363
S''
asbasbasbag53
(g69
g55
NtRp364
(dp365
g58
(dp366
sg67
g255
sg60
(lp367
g53
(g74
g55
NtRp368
(dp369
g58
(dp370
g78
g79
ssg67
g364
sg60
(lp371
S'secure'
p372
asbag53
(g74
g55
NtRp373
(dp374
g58
(dp375
g85
g86
ssg67
g364
sg60
(lp376
S':'
asbag53
(g74
g55
NtRp377
(dp378
g58
(dp379
sg67
g364
sg60
(lp380
g53
(g54
g55
NtRp381
(dp382
g58
(dp383
g66
I3
ssg67
g377
sg60
(lp384
S''
asbasbasbag53
(g69
g55
NtRp385
(dp386
g58
(dp387
sg67
g255
sg60
(lp388
g53
(g74
g55
NtRp389
(dp390
g58
(dp391
g78
g79
ssg67
g385
sg60
(lp392
S'version'
p393
asbag53
(g74
g55
NtRp394
(dp395
g58
(dp396
g85
g86
ssg67
g385
sg60
(lp397
S':'
asbag53
(g74
g55
NtRp398
(dp399
g58
(dp400
sg67
g385
sg60
(lp401
g53
(g54
g55
NtRp402
(dp403
g58
(dp404
g66
I3
ssg67
g398
sg60
(lp405
S''
asbasbasbasbasbasbasbag53
(g69
g55
NtRp406
(dp407
g58
(dp408
sg67
g230
sg60
(lp409
g53
(g74
g55
NtRp410
(dp411
g58
(dp412
g78
g79
ssg67
g406
sg60
(lp413
S'session_id_app3'
p414
asbag53
(g74
g55
NtRp415
(dp416
g58
(dp417
g85
g86
ssg67
g406
sg60
(lp418
S':'
asbag53
(g74
g55
NtRp419
(dp420
g58
(dp421
sg67
g406
sg60
(lp422
g53
(g54
g55
NtRp423
(dp424
g58
(dp425
g66
I4
ssg67
g419
sg60
(lp426
g53
(g62
g55
NtRp427
(dp428
g58
(dp429
g66
I3
ssg67
Nsg60
(lp430
g53
(g69
g55
NtRp431
(dp432
g58
(dp433
sg67
g427
sg60
(lp434
g53
(g74
g55
NtRp435
(dp436
g58
(dp437
g78
g79
ssg67
g431
sg60
(lp438
g267
asbag53
(g74
g55
NtRp439
(dp440
g58
(dp441
g85
g86
ssg67
g431
sg60
(lp442
S':'
asbag53
(g74
g55
NtRp443
(dp444
g58
(dp445
sg67
g431
sg60
(lp446
g53
(g54
g55
NtRp447
(dp448
g58
(dp449
g66
I3
ssg67
g443
sg60
(lp450
S''
asbasbasbag53
(g69
g55
NtRp451
(dp452
g58
(dp453
sg67
g427
sg60
(lp454
g53
(g74
g55
NtRp455
(dp456
g58
(dp457
g78
g79
ssg67
g451
sg60
(lp458
g288
asbag53
(g74
g55
NtRp459
(dp460
g58
(dp461
g85
g86
ssg67
g451
sg60
(lp462
S':'
asbag53
(g74
g55
NtRp463
(dp464
g58
(dp465
sg67
g451
sg60
(lp466
g53
(g54
g55
NtRp467
(dp468
g58
(dp469
g66
I3
ssg67
g463
sg60
(lp470
S''
asbasbasbag53
(g69
g55
NtRp471
(dp472
g58
(dp473
sg67
g427
sg60
(lp474
g53
(g74
g55
NtRp475
(dp476
g58
(dp477
g78
g79
ssg67
g471
sg60
(lp478
g309
asbag53
(g74
g55
NtRp479
(dp480
g58
(dp481
g85
g86
ssg67
g471
sg60
(lp482
S':'
asbag53
(g74
g55
NtRp483
(dp484
g58
(dp485
sg67
g471
sg60
(lp486
g53
(g54
g55
NtRp487
(dp488
g58
(dp489
g66
I3
ssg67
g483
sg60
(lp490
S''
asbasbasbag53
(g69
g55
NtRp491
(dp492
g58
(dp493
sg67
g427
sg60
(lp494
g53
(g74
g55
NtRp495
(dp496
g58
(dp497
g78
g79
ssg67
g491
sg60
(lp498
g330
asbag53
(g74
g55
NtRp499
(dp500
g58
(dp501
g85
g86
ssg67
g491
sg60
(lp502
S':'
asbag53
(g74
g55
NtRp503
(dp504
g58
(dp505
sg67
g491
sg60
(lp506
g53
(g54
g55
NtRp507
(dp508
g58
(dp509
g66
I3
ssg67
g503
sg60
(lp510
S''
asbasbasbag53
(g69
g55
NtRp511
(dp512
g58
(dp513
sg67
g427
sg60
(lp514
g53
(g74
g55
NtRp515
(dp516
g58
(dp517
g78
g79
ssg67
g511
sg60
(lp518
g351
asbag53
(g74
g55
NtRp519
(dp520
g58
(dp521
g85
g86
ssg67
g511
sg60
(lp522
S':'
asbag53
(g74
g55
NtRp523
(dp524
g58
(dp525
sg67
g511
sg60
(lp526
g53
(g54
g55
NtRp527
(dp528
g58
(dp529
g66
I3
ssg67
g523
sg60
(lp530
S''
asbasbasbag53
(g69
g55
NtRp531
(dp532
g58
(dp533
sg67
g427
sg60
(lp534
g53
(g74
g55
NtRp535
(dp536
g58
(dp537
g78
g79
ssg67
g531
sg60
(lp538
g372
asbag53
(g74
g55
NtRp539
(dp540
g58
(dp541
g85
g86
ssg67
g531
sg60
(lp542
S':'
asbag53
(g74
g55
NtRp543
(dp544
g58
(dp545
sg67
g531
sg60
(lp546
g53
(g54
g55
NtRp547
(dp548
g58
(dp549
g66
I3
ssg67
g543
sg60
(lp550
S''
asbasbasbag53
(g69
g55
NtRp551
(dp552
g58
(dp553
sg67
g427
sg60
(lp554
g53
(g74
g55
NtRp555
(dp556
g58
(dp557
g78
g79
ssg67
g551
sg60
(lp558
g393
asbag53
(g74
g55
NtRp559
(dp560
g58
(dp561
g85
g86
ssg67
g551
sg60
(lp562
S':'
asbag53
(g74
g55
NtRp563
(dp564
g58
(dp565
sg67
g551
sg60
(lp566
g53
(g54
g55
NtRp567
(dp568
g58
(dp569
g66
I3
ssg67
g563
sg60
(lp570
S''
asbasbasbasbasbasbasbag53
(g69
g55
NtRp571
(dp572
g58
(dp573
sg67
g230
sg60
(lp574
g53
(g74
g55
NtRp575
(dp576
g58
(dp577
g78
g79
ssg67
g571
sg60
(lp578
S'session_id_app5'
p579
asbag53
(g74
g55
NtRp580
(dp581
g58
(dp582
g85
g86
ssg67
g571
sg60
(lp583
S':'
asbag53
(g74
g55
NtRp584
(dp585
g58
(dp586
sg67
g571
sg60
(lp587
g53
(g54
g55
NtRp588
(dp589
g58
(dp590
g66
I4
ssg67
g584
sg60
(lp591
g53
(g62
g55
NtRp592
(dp593
g58
(dp594
g66
I3
ssg67
Nsg60
(lp595
g53
(g69
g55
NtRp596
(dp597
g58
(dp598
sg67
g592
sg60
(lp599
g53
(g74
g55
NtRp600
(dp601
g58
(dp602
g78
g79
ssg67
g596
sg60
(lp603
g267
asbag53
(g74
g55
NtRp604
(dp605
g58
(dp606
g85
g86
ssg67
g596
sg60
(lp607
S':'
asbag53
(g74
g55
NtRp608
(dp609
g58
(dp610
sg67
g596
sg60
(lp611
g53
(g54
g55
NtRp612
(dp613
g58
(dp614
g66
I3
ssg67
g608
sg60
(lp615
S''
asbasbasbag53
(g69
g55
NtRp616
(dp617
g58
(dp618
sg67
g592
sg60
(lp619
g53
(g74
g55
NtRp620
(dp621
g58
(dp622
g78
g79
ssg67
g616
sg60
(lp623
g288
asbag53
(g74
g55
NtRp624
(dp625
g58
(dp626
g85
g86
ssg67
g616
sg60
(lp627
S':'
asbag53
(g74
g55
NtRp628
(dp629
g58
(dp630
sg67
g616
sg60
(lp631
g53
(g54
g55
NtRp632
(dp633
g58
(dp634
g66
I3
ssg67
g628
sg60
(lp635
S''
asbasbasbag53
(g69
g55
NtRp636
(dp637
g58
(dp638
sg67
g592
sg60
(lp639
g53
(g74
g55
NtRp640
(dp641
g58
(dp642
g78
g79
ssg67
g636
sg60
(lp643
g309
asbag53
(g74
g55
NtRp644
(dp645
g58
(dp646
g85
g86
ssg67
g636
sg60
(lp647
S':'
asbag53
(g74
g55
NtRp648
(dp649
g58
(dp650
sg67
g636
sg60
(lp651
g53
(g54
g55
NtRp652
(dp653
g58
(dp654
g66
I3
ssg67
g648
sg60
(lp655
S''
asbasbasbag53
(g69
g55
NtRp656
(dp657
g58
(dp658
sg67
g592
sg60
(lp659
g53
(g74
g55
NtRp660
(dp661
g58
(dp662
g78
g79
ssg67
g656
sg60
(lp663
g330
asbag53
(g74
g55
NtRp664
(dp665
g58
(dp666
g85
g86
ssg67
g656
sg60
(lp667
S':'
asbag53
(g74
g55
NtRp668
(dp669
g58
(dp670
sg67
g656
sg60
(lp671
g53
(g54
g55
NtRp672
(dp673
g58
(dp674
g66
I3
ssg67
g668
sg60
(lp675
S''
asbasbasbag53
(g69
g55
NtRp676
(dp677
g58
(dp678
sg67
g592
sg60
(lp679
g53
(g74
g55
NtRp680
(dp681
g58
(dp682
g78
g79
ssg67
g676
sg60
(lp683
g351
asbag53
(g74
g55
NtRp684
(dp685
g58
(dp686
g85
g86
ssg67
g676
sg60
(lp687
S':'
asbag53
(g74
g55
NtRp688
(dp689
g58
(dp690
sg67
g676
sg60
(lp691
g53
(g54
g55
NtRp692
(dp693
g58
(dp694
g66
I3
ssg67
g688
sg60
(lp695
S''
asbasbasbag53
(g69
g55
NtRp696
(dp697
g58
(dp698
sg67
g592
sg60
(lp699
g53
(g74
g55
NtRp700
(dp701
g58
(dp702
g78
g79
ssg67
g696
sg60
(lp703
g372
asbag53
(g74
g55
NtRp704
(dp705
g58
(dp706
g85
g86
ssg67
g696
sg60
(lp707
S':'
asbag53
(g74
g55
NtRp708
(dp709
g58
(dp710
sg67
g696
sg60
(lp711
g53
(g54
g55
NtRp712
(dp713
g58
(dp714
g66
I3
ssg67
g708
sg60
(lp715
S''
asbasbasbag53
(g69
g55
NtRp716
(dp717
g58
(dp718
sg67
g592
sg60
(lp719
g53
(g74
g55
NtRp720
(dp721
g58
(dp722
g78
g79
ssg67
g716
sg60
(lp723
g393
asbag53
(g74
g55
NtRp724
(dp725
g58
(dp726
g85
g86
ssg67
g716
sg60
(lp727
S':'
asbag53
(g74
g55
NtRp728
(dp729
g58
(dp730
sg67
g716
sg60
(lp731
g53
(g54
g55
NtRp732
(dp733
g58
(dp734
g66
I3
ssg67
g728
sg60
(lp735
S''
asbasbasbasbasbasbasbag53
(g69
g55
NtRp736
(dp737
g58
(dp738
sg67
g230
sg60
(lp739
g53
(g74
g55
NtRp740
(dp741
g58
(dp742
g78
g79
ssg67
g736
sg60
(lp743
S'session_id_bingapi'
p744
asbag53
(g74
g55
NtRp745
(dp746
g58
(dp747
g85
g86
ssg67
g736
sg60
(lp748
S':'
asbag53
(g74
g55
NtRp749
(dp750
g58
(dp751
sg67
g736
sg60
(lp752
g53
(g54
g55
NtRp753
(dp754
g58
(dp755
g66
I4
ssg67
g749
sg60
(lp756
g53
(g62
g55
NtRp757
(dp758
g58
(dp759
g66
I3
ssg67
Nsg60
(lp760
g53
(g69
g55
NtRp761
(dp762
g58
(dp763
sg67
g757
sg60
(lp764
g53
(g74
g55
NtRp765
(dp766
g58
(dp767
g78
g79
ssg67
g761
sg60
(lp768
g267
asbag53
(g74
g55
NtRp769
(dp770
g58
(dp771
g85
g86
ssg67
g761
sg60
(lp772
S':'
asbag53
(g74
g55
NtRp773
(dp774
g58
(dp775
sg67
g761
sg60
(lp776
g53
(g54
g55
NtRp777
(dp778
g58
(dp779
g66
I3
ssg67
g773
sg60
(lp780
S''
asbasbasbag53
(g69
g55
NtRp781
(dp782
g58
(dp783
sg67
g757
sg60
(lp784
g53
(g74
g55
NtRp785
(dp786
g58
(dp787
g78
g79
ssg67
g781
sg60
(lp788
g288
asbag53
(g74
g55
NtRp789
(dp790
g58
(dp791
g85
g86
ssg67
g781
sg60
(lp792
S':'
asbag53
(g74
g55
NtRp793
(dp794
g58
(dp795
sg67
g781
sg60
(lp796
g53
(g54
g55
NtRp797
(dp798
g58
(dp799
g66
I3
ssg67
g793
sg60
(lp800
S''
asbasbasbag53
(g69
g55
NtRp801
(dp802
g58
(dp803
sg67
g757
sg60
(lp804
g53
(g74
g55
NtRp805
(dp806
g58
(dp807
g78
g79
ssg67
g801
sg60
(lp808
g309
asbag53
(g74
g55
NtRp809
(dp810
g58
(dp811
g85
g86
ssg67
g801
sg60
(lp812
S':'
asbag53
(g74
g55
NtRp813
(dp814
g58
(dp815
sg67
g801
sg60
(lp816
g53
(g54
g55
NtRp817
(dp818
g58
(dp819
g66
I3
ssg67
g813
sg60
(lp820
S''
asbasbasbag53
(g69
g55
NtRp821
(dp822
g58
(dp823
sg67
g757
sg60
(lp824
g53
(g74
g55
NtRp825
(dp826
g58
(dp827
g78
g79
ssg67
g821
sg60
(lp828
g330
asbag53
(g74
g55
NtRp829
(dp830
g58
(dp831
g85
g86
ssg67
g821
sg60
(lp832
S':'
asbag53
(g74
g55
NtRp833
(dp834
g58
(dp835
sg67
g821
sg60
(lp836
g53
(g54
g55
NtRp837
(dp838
g58
(dp839
g66
I3
ssg67
g833
sg60
(lp840
S''
asbasbasbag53
(g69
g55
NtRp841
(dp842
g58
(dp843
sg67
g757
sg60
(lp844
g53
(g74
g55
NtRp845
(dp846
g58
(dp847
g78
g79
ssg67
g841
sg60
(lp848
g351
asbag53
(g74
g55
NtRp849
(dp850
g58
(dp851
g85
g86
ssg67
g841
sg60
(lp852
S':'
asbag53
(g74
g55
NtRp853
(dp854
g58
(dp855
sg67
g841
sg60
(lp856
g53
(g54
g55
NtRp857
(dp858
g58
(dp859
g66
I3
ssg67
g853
sg60
(lp860
S''
asbasbasbag53
(g69
g55
NtRp861
(dp862
g58
(dp863
sg67
g757
sg60
(lp864
g53
(g74
g55
NtRp865
(dp866
g58
(dp867
g78
g79
ssg67
g861
sg60
(lp868
g372
asbag53
(g74
g55
NtRp869
(dp870
g58
(dp871
g85
g86
ssg67
g861
sg60
(lp872
S':'
asbag53
(g74
g55
NtRp873
(dp874
g58
(dp875
sg67
g861
sg60
(lp876
g53
(g54
g55
NtRp877
(dp878
g58
(dp879
g66
I3
ssg67
g873
sg60
(lp880
S''
asbasbasbag53
(g69
g55
NtRp881
(dp882
g58
(dp883
sg67
g757
sg60
(lp884
g53
(g74
g55
NtRp885
(dp886
g58
(dp887
g78
g79
ssg67
g881
sg60
(lp888
g393
asbag53
(g74
g55
NtRp889
(dp890
g58
(dp891
g85
g86
ssg67
g881
sg60
(lp892
S':'
asbag53
(g74
g55
NtRp893
(dp894
g58
(dp895
sg67
g881
sg60
(lp896
g53
(g54
g55
NtRp897
(dp898
g58
(dp899
g66
I3
ssg67
g893
sg60
(lp900
S''
asbasbasbasbasbasbasbag53
(g69
g55
NtRp901
(dp902
g58
(dp903
sg67
g230
sg60
(lp904
g53
(g74
g55
NtRp905
(dp906
g58
(dp907
g78
g79
ssg67
g901
sg60
(lp908
S'session_id_conf2py'
p909
asbag53
(g74
g55
NtRp910
(dp911
g58
(dp912
g85
g86
ssg67
g901
sg60
(lp913
S':'
asbag53
(g74
g55
NtRp914
(dp915
g58
(dp916
sg67
g901
sg60
(lp917
g53
(g54
g55
NtRp918
(dp919
g58
(dp920
g66
I4
ssg67
g914
sg60
(lp921
g53
(g62
g55
NtRp922
(dp923
g58
(dp924
g66
I3
ssg67
Nsg60
(lp925
g53
(g69
g55
NtRp926
(dp927
g58
(dp928
sg67
g922
sg60
(lp929
g53
(g74
g55
NtRp930
(dp931
g58
(dp932
g78
g79
ssg67
g926
sg60
(lp933
g267
asbag53
(g74
g55
NtRp934
(dp935
g58
(dp936
g85
g86
ssg67
g926
sg60
(lp937
S':'
asbag53
(g74
g55
NtRp938
(dp939
g58
(dp940
sg67
g926
sg60
(lp941
g53
(g54
g55
NtRp942
(dp943
g58
(dp944
g66
I3
ssg67
g938
sg60
(lp945
S''
asbasbasbag53
(g69
g55
NtRp946
(dp947
g58
(dp948
sg67
g922
sg60
(lp949
g53
(g74
g55
NtRp950
(dp951
g58
(dp952
g78
g79
ssg67
g946
sg60
(lp953
g288
asbag53
(g74
g55
NtRp954
(dp955
g58
(dp956
g85
g86
ssg67
g946
sg60
(lp957
S':'
asbag53
(g74
g55
NtRp958
(dp959
g58
(dp960
sg67
g946
sg60
(lp961
g53
(g54
g55
NtRp962
(dp963
g58
(dp964
g66
I3
ssg67
g958
sg60
(lp965
S''
asbasbasbag53
(g69
g55
NtRp966
(dp967
g58
(dp968
sg67
g922
sg60
(lp969
g53
(g74
g55
NtRp970
(dp971
g58
(dp972
g78
g79
ssg67
g966
sg60
(lp973
g309
asbag53
(g74
g55
NtRp974
(dp975
g58
(dp976
g85
g86
ssg67
g966
sg60
(lp977
S':'
asbag53
(g74
g55
NtRp978
(dp979
g58
(dp980
sg67
g966
sg60
(lp981
g53
(g54
g55
NtRp982
(dp983
g58
(dp984
g66
I3
ssg67
g978
sg60
(lp985
S''
asbasbasbag53
(g69
g55
NtRp986
(dp987
g58
(dp988
sg67
g922
sg60
(lp989
g53
(g74
g55
NtRp990
(dp991
g58
(dp992
g78
g79
ssg67
g986
sg60
(lp993
g330
asbag53
(g74
g55
NtRp994
(dp995
g58
(dp996
g85
g86
ssg67
g986
sg60
(lp997
S':'
asbag53
(g74
g55
NtRp998
(dp999
g58
(dp1000
sg67
g986
sg60
(lp1001
g53
(g54
g55
NtRp1002
(dp1003
g58
(dp1004
g66
I3
ssg67
g998
sg60
(lp1005
S''
asbasbasbag53
(g69
g55
NtRp1006
(dp1007
g58
(dp1008
sg67
g922
sg60
(lp1009
g53
(g74
g55
NtRp1010
(dp1011
g58
(dp1012
g78
g79
ssg67
g1006
sg60
(lp1013
g351
asbag53
(g74
g55
NtRp1014
(dp1015
g58
(dp1016
g85
g86
ssg67
g1006
sg60
(lp1017
S':'
asbag53
(g74
g55
NtRp1018
(dp1019
g58
(dp1020
sg67
g1006
sg60
(lp1021
g53
(g54
g55
NtRp1022
(dp1023
g58
(dp1024
g66
I3
ssg67
g1018
sg60
(lp1025
S''
asbasbasbag53
(g69
g55
NtRp1026
(dp1027
g58
(dp1028
sg67
g922
sg60
(lp1029
g53
(g74
g55
NtRp1030
(dp1031
g58
(dp1032
g78
g79
ssg67
g1026
sg60
(lp1033
g372
asbag53
(g74
g55
NtRp1034
(dp1035
g58
(dp1036
g85
g86
ssg67
g1026
sg60
(lp1037
S':'
asbag53
(g74
g55
NtRp1038
(dp1039
g58
(dp1040
sg67
g1026
sg60
(lp1041
g53
(g54
g55
NtRp1042
(dp1043
g58
(dp1044
g66
I3
ssg67
g1038
sg60
(lp1045
S''
asbasbasbag53
(g69
g55
NtRp1046
(dp1047
g58
(dp1048
sg67
g922
sg60
(lp1049
g53
(g74
g55
NtRp1050
(dp1051
g58
(dp1052
g78
g79
ssg67
g1046
sg60
(lp1053
g393
asbag53
(g74
g55
NtRp1054
(dp1055
g58
(dp1056
g85
g86
ssg67
g1046
sg60
(lp1057
S':'
asbag53
(g74
g55
NtRp1058
(dp1059
g58
(dp1060
sg67
g1046
sg60
(lp1061
g53
(g54
g55
NtRp1062
(dp1063
g58
(dp1064
g66
I3
ssg67
g1058
sg60
(lp1065
S''
asbasbasbasbasbasbasbag53
(g69
g55
NtRp1066
(dp1067
g58
(dp1068
sg67
g230
sg60
(lp1069
g53
(g74
g55
NtRp1070
(dp1071
g58
(dp1072
g78
g79
ssg67
g1066
sg60
(lp1073
S'session_id_dpu'
p1074
asbag53
(g74
g55
NtRp1075
(dp1076
g58
(dp1077
g85
g86
ssg67
g1066
sg60
(lp1078
S':'
asbag53
(g74
g55
NtRp1079
(dp1080
g58
(dp1081
sg67
g1066
sg60
(lp1082
g53
(g54
g55
NtRp1083
(dp1084
g58
(dp1085
g66
I4
ssg67
g1079
sg60
(lp1086
g53
(g62
g55
NtRp1087
(dp1088
g58
(dp1089
g66
I3
ssg67
Nsg60
(lp1090
g53
(g69
g55
NtRp1091
(dp1092
g58
(dp1093
sg67
g1087
sg60
(lp1094
g53
(g74
g55
NtRp1095
(dp1096
g58
(dp1097
g78
g79
ssg67
g1091
sg60
(lp1098
g267
asbag53
(g74
g55
NtRp1099
(dp1100
g58
(dp1101
g85
g86
ssg67
g1091
sg60
(lp1102
S':'
asbag53
(g74
g55
NtRp1103
(dp1104
g58
(dp1105
sg67
g1091
sg60
(lp1106
g53
(g54
g55
NtRp1107
(dp1108
g58
(dp1109
g66
I3
ssg67
g1103
sg60
(lp1110
S''
asbasbasbag53
(g69
g55
NtRp1111
(dp1112
g58
(dp1113
sg67
g1087
sg60
(lp1114
g53
(g74
g55
NtRp1115
(dp1116
g58
(dp1117
g78
g79
ssg67
g1111
sg60
(lp1118
g288
asbag53
(g74
g55
NtRp1119
(dp1120
g58
(dp1121
g85
g86
ssg67
g1111
sg60
(lp1122
S':'
asbag53
(g74
g55
NtRp1123
(dp1124
g58
(dp1125
sg67
g1111
sg60
(lp1126
g53
(g54
g55
NtRp1127
(dp1128
g58
(dp1129
g66
I3
ssg67
g1123
sg60
(lp1130
S''
asbasbasbag53
(g69
g55
NtRp1131
(dp1132
g58
(dp1133
sg67
g1087
sg60
(lp1134
g53
(g74
g55
NtRp1135
(dp1136
g58
(dp1137
g78
g79
ssg67
g1131
sg60
(lp1138
g309
asbag53
(g74
g55
NtRp1139
(dp1140
g58
(dp1141
g85
g86
ssg67
g1131
sg60
(lp1142
S':'
asbag53
(g74
g55
NtRp1143
(dp1144
g58
(dp1145
sg67
g1131
sg60
(lp1146
g53
(g54
g55
NtRp1147
(dp1148
g58
(dp1149
g66
I3
ssg67
g1143
sg60
(lp1150
S''
asbasbasbag53
(g69
g55
NtRp1151
(dp1152
g58
(dp1153
sg67
g1087
sg60
(lp1154
g53
(g74
g55
NtRp1155
(dp1156
g58
(dp1157
g78
g79
ssg67
g1151
sg60
(lp1158
g330
asbag53
(g74
g55
NtRp1159
(dp1160
g58
(dp1161
g85
g86
ssg67
g1151
sg60
(lp1162
S':'
asbag53
(g74
g55
NtRp1163
(dp1164
g58
(dp1165
sg67
g1151
sg60
(lp1166
g53
(g54
g55
NtRp1167
(dp1168
g58
(dp1169
g66
I3
ssg67
g1163
sg60
(lp1170
S''
asbasbasbag53
(g69
g55
NtRp1171
(dp1172
g58
(dp1173
sg67
g1087
sg60
(lp1174
g53
(g74
g55
NtRp1175
(dp1176
g58
(dp1177
g78
g79
ssg67
g1171
sg60
(lp1178
g351
asbag53
(g74
g55
NtRp1179
(dp1180
g58
(dp1181
g85
g86
ssg67
g1171
sg60
(lp1182
S':'
asbag53
(g74
g55
NtRp1183
(dp1184
g58
(dp1185
sg67
g1171
sg60
(lp1186
g53
(g54
g55
NtRp1187
(dp1188
g58
(dp1189
g66
I3
ssg67
g1183
sg60
(lp1190
S''
asbasbasbag53
(g69
g55
NtRp1191
(dp1192
g58
(dp1193
sg67
g1087
sg60
(lp1194
g53
(g74
g55
NtRp1195
(dp1196
g58
(dp1197
g78
g79
ssg67
g1191
sg60
(lp1198
g372
asbag53
(g74
g55
NtRp1199
(dp1200
g58
(dp1201
g85
g86
ssg67
g1191
sg60
(lp1202
S':'
asbag53
(g74
g55
NtRp1203
(dp1204
g58
(dp1205
sg67
g1191
sg60
(lp1206
g53
(g54
g55
NtRp1207
(dp1208
g58
(dp1209
g66
I3
ssg67
g1203
sg60
(lp1210
S''
asbasbasbag53
(g69
g55
NtRp1211
(dp1212
g58
(dp1213
sg67
g1087
sg60
(lp1214
g53
(g74
g55
NtRp1215
(dp1216
g58
(dp1217
g78
g79
ssg67
g1211
sg60
(lp1218
g393
asbag53
(g74
g55
NtRp1219
(dp1220
g58
(dp1221
g85
g86
ssg67
g1211
sg60
(lp1222
S':'
asbag53
(g74
g55
NtRp1223
(dp1224
g58
(dp1225
sg67
g1211
sg60
(lp1226
g53
(g54
g55
NtRp1227
(dp1228
g58
(dp1229
g66
I3
ssg67
g1223
sg60
(lp1230
S''
asbasbasbasbasbasbasbag53
(g69
g55
NtRp1231
(dp1232
g58
(dp1233
sg67
g230
sg60
(lp1234
g53
(g74
g55
NtRp1235
(dp1236
g58
(dp1237
g78
g79
ssg67
g1231
sg60
(lp1238
S'session_id_estore'
p1239
asbag53
(g74
g55
NtRp1240
(dp1241
g58
(dp1242
g85
g86
ssg67
g1231
sg60
(lp1243
S':'
asbag53
(g74
g55
NtRp1244
(dp1245
g58
(dp1246
sg67
g1231
sg60
(lp1247
g53
(g54
g55
NtRp1248
(dp1249
g58
(dp1250
g66
I4
ssg67
g1244
sg60
(lp1251
g53
(g62
g55
NtRp1252
(dp1253
g58
(dp1254
g66
I3
ssg67
Nsg60
(lp1255
g53
(g69
g55
NtRp1256
(dp1257
g58
(dp1258
sg67
g1252
sg60
(lp1259
g53
(g74
g55
NtRp1260
(dp1261
g58
(dp1262
g78
g79
ssg67
g1256
sg60
(lp1263
g267
asbag53
(g74
g55
NtRp1264
(dp1265
g58
(dp1266
g85
g86
ssg67
g1256
sg60
(lp1267
S':'
asbag53
(g74
g55
NtRp1268
(dp1269
g58
(dp1270
sg67
g1256
sg60
(lp1271
g53
(g54
g55
NtRp1272
(dp1273
g58
(dp1274
g66
I3
ssg67
g1268
sg60
(lp1275
S''
asbasbasbag53
(g69
g55
NtRp1276
(dp1277
g58
(dp1278
sg67
g1252
sg60
(lp1279
g53
(g74
g55
NtRp1280
(dp1281
g58
(dp1282
g78
g79
ssg67
g1276
sg60
(lp1283
g288
asbag53
(g74
g55
NtRp1284
(dp1285
g58
(dp1286
g85
g86
ssg67
g1276
sg60
(lp1287
S':'
asbag53
(g74
g55
NtRp1288
(dp1289
g58
(dp1290
sg67
g1276
sg60
(lp1291
g53
(g54
g55
NtRp1292
(dp1293
g58
(dp1294
g66
I3
ssg67
g1288
sg60
(lp1295
S''
asbasbasbag53
(g69
g55
NtRp1296
(dp1297
g58
(dp1298
sg67
g1252
sg60
(lp1299
g53
(g74
g55
NtRp1300
(dp1301
g58
(dp1302
g78
g79
ssg67
g1296
sg60
(lp1303
g309
asbag53
(g74
g55
NtRp1304
(dp1305
g58
(dp1306
g85
g86
ssg67
g1296
sg60
(lp1307
S':'
asbag53
(g74
g55
NtRp1308
(dp1309
g58
(dp1310
sg67
g1296
sg60
(lp1311
g53
(g54
g55
NtRp1312
(dp1313
g58
(dp1314
g66
I3
ssg67
g1308
sg60
(lp1315
S''
asbasbasbag53
(g69
g55
NtRp1316
(dp1317
g58
(dp1318
sg67
g1252
sg60
(lp1319
g53
(g74
g55
NtRp1320
(dp1321
g58
(dp1322
g78
g79
ssg67
g1316
sg60
(lp1323
g330
asbag53
(g74
g55
NtRp1324
(dp1325
g58
(dp1326
g85
g86
ssg67
g1316
sg60
(lp1327
S':'
asbag53
(g74
g55
NtRp1328
(dp1329
g58
(dp1330
sg67
g1316
sg60
(lp1331
g53
(g54
g55
NtRp1332
(dp1333
g58
(dp1334
g66
I3
ssg67
g1328
sg60
(lp1335
S''
asbasbasbag53
(g69
g55
NtRp1336
(dp1337
g58
(dp1338
sg67
g1252
sg60
(lp1339
g53
(g74
g55
NtRp1340
(dp1341
g58
(dp1342
g78
g79
ssg67
g1336
sg60
(lp1343
g351
asbag53
(g74
g55
NtRp1344
(dp1345
g58
(dp1346
g85
g86
ssg67
g1336
sg60
(lp1347
S':'
asbag53
(g74
g55
NtRp1348
(dp1349
g58
(dp1350
sg67
g1336
sg60
(lp1351
g53
(g54
g55
NtRp1352
(dp1353
g58
(dp1354
g66
I3
ssg67
g1348
sg60
(lp1355
S''
asbasbasbag53
(g69
g55
NtRp1356
(dp1357
g58
(dp1358
sg67
g1252
sg60
(lp1359
g53
(g74
g55
NtRp1360
(dp1361
g58
(dp1362
g78
g79
ssg67
g1356
sg60
(lp1363
g372
asbag53
(g74
g55
NtRp1364
(dp1365
g58
(dp1366
g85
g86
ssg67
g1356
sg60
(lp1367
S':'
asbag53
(g74
g55
NtRp1368
(dp1369
g58
(dp1370
sg67
g1356
sg60
(lp1371
g53
(g54
g55
NtRp1372
(dp1373
g58
(dp1374
g66
I3
ssg67
g1368
sg60
(lp1375
S''
asbasbasbag53
(g69
g55
NtRp1376
(dp1377
g58
(dp1378
sg67
g1252
sg60
(lp1379
g53
(g74
g55
NtRp1380
(dp1381
g58
(dp1382
g78
g79
ssg67
g1376
sg60
(lp1383
g393
asbag53
(g74
g55
NtRp1384
(dp1385
g58
(dp1386
g85
g86
ssg67
g1376
sg60
(lp1387
S':'
asbag53
(g74
g55
NtRp1388
(dp1389
g58
(dp1390
sg67
g1376
sg60
(lp1391
g53
(g54
g55
NtRp1392
(dp1393
g58
(dp1394
g66
I3
ssg67
g1388
sg60
(lp1395
S''
asbasbasbasbasbasbasbag53
(g69
g55
NtRp1396
(dp1397
g58
(dp1398
sg67
g230
sg60
(lp1399
g53
(g74
g55
NtRp1400
(dp1401
g58
(dp1402
g78
g79
ssg67
g1396
sg60
(lp1403
S'session_id_welcome'
p1404
asbag53
(g74
g55
NtRp1405
(dp1406
g58
(dp1407
g85
g86
ssg67
g1396
sg60
(lp1408
S':'
asbag53
(g74
g55
NtRp1409
(dp1410
g58
(dp1411
sg67
g1396
sg60
(lp1412
g53
(g54
g55
NtRp1413
(dp1414
g58
(dp1415
g66
I4
ssg67
g1409
sg60
(lp1416
g53
(g62
g55
NtRp1417
(dp1418
g58
(dp1419
g66
I3
ssg67
Nsg60
(lp1420
g53
(g69
g55
NtRp1421
(dp1422
g58
(dp1423
sg67
g1417
sg60
(lp1424
g53
(g74
g55
NtRp1425
(dp1426
g58
(dp1427
g78
g79
ssg67
g1421
sg60
(lp1428
g267
asbag53
(g74
g55
NtRp1429
(dp1430
g58
(dp1431
g85
g86
ssg67
g1421
sg60
(lp1432
S':'
asbag53
(g74
g55
NtRp1433
(dp1434
g58
(dp1435
sg67
g1421
sg60
(lp1436
g53
(g54
g55
NtRp1437
(dp1438
g58
(dp1439
g66
I3
ssg67
g1433
sg60
(lp1440
S''
asbasbasbag53
(g69
g55
NtRp1441
(dp1442
g58
(dp1443
sg67
g1417
sg60
(lp1444
g53
(g74
g55
NtRp1445
(dp1446
g58
(dp1447
g78
g79
ssg67
g1441
sg60
(lp1448
g288
asbag53
(g74
g55
NtRp1449
(dp1450
g58
(dp1451
g85
g86
ssg67
g1441
sg60
(lp1452
S':'
asbag53
(g74
g55
NtRp1453
(dp1454
g58
(dp1455
sg67
g1441
sg60
(lp1456
g53
(g54
g55
NtRp1457
(dp1458
g58
(dp1459
g66
I3
ssg67
g1453
sg60
(lp1460
S''
asbasbasbag53
(g69
g55
NtRp1461
(dp1462
g58
(dp1463
sg67
g1417
sg60
(lp1464
g53
(g74
g55
NtRp1465
(dp1466
g58
(dp1467
g78
g79
ssg67
g1461
sg60
(lp1468
g309
asbag53
(g74
g55
NtRp1469
(dp1470
g58
(dp1471
g85
g86
ssg67
g1461
sg60
(lp1472
S':'
asbag53
(g74
g55
NtRp1473
(dp1474
g58
(dp1475
sg67
g1461
sg60
(lp1476
g53
(g54
g55
NtRp1477
(dp1478
g58
(dp1479
g66
I3
ssg67
g1473
sg60
(lp1480
S''
asbasbasbag53
(g69
g55
NtRp1481
(dp1482
g58
(dp1483
sg67
g1417
sg60
(lp1484
g53
(g74
g55
NtRp1485
(dp1486
g58
(dp1487
g78
g79
ssg67
g1481
sg60
(lp1488
g330
asbag53
(g74
g55
NtRp1489
(dp1490
g58
(dp1491
g85
g86
ssg67
g1481
sg60
(lp1492
S':'
asbag53
(g74
g55
NtRp1493
(dp1494
g58
(dp1495
sg67
g1481
sg60
(lp1496
g53
(g54
g55
NtRp1497
(dp1498
g58
(dp1499
g66
I3
ssg67
g1493
sg60
(lp1500
S''
asbasbasbag53
(g69
g55
NtRp1501
(dp1502
g58
(dp1503
sg67
g1417
sg60
(lp1504
g53
(g74
g55
NtRp1505
(dp1506
g58
(dp1507
g78
g79
ssg67
g1501
sg60
(lp1508
g351
asbag53
(g74
g55
NtRp1509
(dp1510
g58
(dp1511
g85
g86
ssg67
g1501
sg60
(lp1512
S':'
asbag53
(g74
g55
NtRp1513
(dp1514
g58
(dp1515
sg67
g1501
sg60
(lp1516
g53
(g54
g55
NtRp1517
(dp1518
g58
(dp1519
g66
I3
ssg67
g1513
sg60
(lp1520
S''
asbasbasbag53
(g69
g55
NtRp1521
(dp1522
g58
(dp1523
sg67
g1417
sg60
(lp1524
g53
(g74
g55
NtRp1525
(dp1526
g58
(dp1527
g78
g79
ssg67
g1521
sg60
(lp1528
g372
asbag53
(g74
g55
NtRp1529
(dp1530
g58
(dp1531
g85
g86
ssg67
g1521
sg60
(lp1532
S':'
asbag53
(g74
g55
NtRp1533
(dp1534
g58
(dp1535
sg67
g1521
sg60
(lp1536
g53
(g54
g55
NtRp1537
(dp1538
g58
(dp1539
g66
I3
ssg67
g1533
sg60
(lp1540
S''
asbasbasbag53
(g69
g55
NtRp1541
(dp1542
g58
(dp1543
sg67
g1417
sg60
(lp1544
g53
(g74
g55
NtRp1545
(dp1546
g58
(dp1547
g78
g79
ssg67
g1541
sg60
(lp1548
g393
asbag53
(g74
g55
NtRp1549
(dp1550
g58
(dp1551
g85
g86
ssg67
g1541
sg60
(lp1552
S':'
asbag53
(g74
g55
NtRp1553
(dp1554
g58
(dp1555
sg67
g1541
sg60
(lp1556
g53
(g54
g55
NtRp1557
(dp1558
g58
(dp1559
g66
I3
ssg67
g1553
sg60
(lp1560
S''
asbasbasbasbasbasbasbasbasbasbasbag53
(g69
g55
NtRp1561
(dp1562
g58
(dp1563
sg67
g63
sg60
(lp1564
g53
(g74
g55
NtRp1565
(dp1566
g58
(dp1567
g78
g79
ssg67
g1561
sg60
(lp1568
S'env'
p1569
asbag53
(g74
g55
NtRp1570
(dp1571
g58
(dp1572
g85
g86
ssg67
g1561
sg60
(lp1573
S':'
asbag53
(g74
g55
NtRp1574
(dp1575
g58
(dp1576
sg67
g1561
sg60
(lp1577
g53
(g54
g55
NtRp1578
(dp1579
g58
(dp1580
g66
I5
ssg67
g1574
sg60
(lp1581
g53
(g62
g55
NtRp1582
(dp1583
g58
(dp1584
g66
I4
ssg67
Nsg60
(lp1585
g53
(g69
g55
NtRp1586
(dp1587
g58
(dp1588
sg67
g1582
sg60
(lp1589
g53
(g74
g55
NtRp1590
(dp1591
g58
(dp1592
g78
g79
ssg67
g1586
sg60
(lp1593
S'app_folders'
p1594
asbag53
(g74
g55
NtRp1595
(dp1596
g58
(dp1597
g85
g86
ssg67
g1586
sg60
(lp1598
S':'
asbag53
(g74
g55
NtRp1599
(dp1600
g58
(dp1601
sg67
g1586
sg60
(lp1602
g53
(g54
g55
NtRp1603
(dp1604
g58
(dp1605
g66
I4
ssg67
g1599
sg60
(lp1606
S"set(['/Users/massimodipierro/Dropbox/web2py-appliances/web2py/applications/BingApi/'])"
p1607
asbasbasbag53
(g69
g55
NtRp1608
(dp1609
g58
(dp1610
sg67
g1582
sg60
(lp1611
g53
(g74
g55
NtRp1612
(dp1613
g58
(dp1614
g78
g79
ssg67
g1608
sg60
(lp1615
S'applications_parent'
p1616
asbag53
(g74
g55
NtRp1617
(dp1618
g58
(dp1619
g85
g86
ssg67
g1608
sg60
(lp1620
S':'
asbag53
(g74
g55
NtRp1621
(dp1622
g58
(dp1623
sg67
g1608
sg60
(lp1624
g53
(g54
g55
NtRp1625
(dp1626
g58
(dp1627
g66
I4
ssg67
g1621
sg60
(lp1628
S'/Users/massimodipierro/Dropbox/web2py-appliances/web2py'
p1629
asbasbasbag53
(g69
g55
NtRp1630
(dp1631
g58
(dp1632
sg67
g1582
sg60
(lp1633
g53
(g74
g55
NtRp1634
(dp1635
g58
(dp1636
g78
g79
ssg67
g1630
sg60
(lp1637
S'cmd_args'
p1638
asbag53
(g74
g55
NtRp1639
(dp1640
g58
(dp1641
g85
g86
ssg67
g1630
sg60
(lp1642
S':'
asbag53
(g74
g55
NtRp1643
(dp1644
g58
(dp1645
sg67
g1630
sg60
(lp1646
g53
(g54
g55
NtRp1647
(dp1648
g58
(dp1649
g66
I4
ssg67
g1643
sg60
(lp1650
g53
(g62
g55
NtRp1651
(dp1652
g58
(dp1653
g66
I3
ssg67
Nsg60
(lp1654
sbasbasbasbag53
(g69
g55
NtRp1655
(dp1656
g58
(dp1657
sg67
g1582
sg60
(lp1658
g53
(g74
g55
NtRp1659
(dp1660
g58
(dp1661
g78
g79
ssg67
g1655
sg60
(lp1662
S'cmd_options'
p1663
asbag53
(g74
g55
NtRp1664
(dp1665
g58
(dp1666
g85
g86
ssg67
g1655
sg60
(lp1667
S':'
asbag53
(g74
g55
NtRp1668
(dp1669
g58
(dp1670
sg67
g1655
sg60
(lp1671
g53
(g54
g55
NtRp1672
(dp1673
g58
(dp1674
g66
I4
ssg67
g1668
sg60
(lp1675
S"<Values at 0x51f328: {'verbose': False, 'ip': '127.0.0.1', 'shutdown_timeout': 5, 'taskbar': False, 'nocron': False, 'pid_filename': 'httpserver.pid', 'maxthreads': None, 'softcron': False, 'server_name': 'me', 'bpython': False, 'nogui': False, 'port': 8000, 'extcron': False, 'debuglevel': 30, 'test': None, 'folder': '/Users/massimodipierro/Dropbox/web2py-appliances/web2py', 'config': '', 'import_models': False, 'winservice': '', 'shell': None, 'run': '', 'log_filename': 'httpserver.log', 'args': [''], 'socket_timeout': 1, 'ssl_ca_certificate': None, 'scheduler': None, 'profiler_filename': None, 'ssl_private_key': '', 'password': 'hello', 'request_queue_size': 5, 'ssl_certificate': '', 'cronjob': False, 'numthreads': None, 'quiet': False, 'interfaces': None, 'minthreads': None, 'timeout': 10, 'plain': False, 'nobanner': False}>"
p1676
asbasbasbag53
(g69
g55
NtRp1677
(dp1678
g58
(dp1679
sg67
g1582
sg60
(lp1680
g53
(g74
g55
NtRp1681
(dp1682
g58
(dp1683
g78
g79
ssg67
g1677
sg60
(lp1684
S'content_length'
p1685
asbag53
(g74
g55
NtRp1686
(dp1687
g58
(dp1688
g85
g86
ssg67
g1677
sg60
(lp1689
S':'
asbag53
(g74
g55
NtRp1690
(dp1691
g58
(dp1692
sg67
g1677
sg60
(lp1693
g53
(g54
g55
NtRp1694
(dp1695
g58
(dp1696
g66
I4
ssg67
g1690
sg60
(lp1697
S'370'
p1698
asbasbasbag53
(g69
g55
NtRp1699
(dp1700
g58
(dp1701
sg67
g1582
sg60
(lp1702
g53
(g74
g55
NtRp1703
(dp1704
g58
(dp1705
g78
g79
ssg67
g1699
sg60
(lp1706
S'content_type'
p1707
asbag53
(g74
g55
NtRp1708
(dp1709
g58
(dp1710
g85
g86
ssg67
g1699
sg60
(lp1711
S':'
asbag53
(g74
g55
NtRp1712
(dp1713
g58
(dp1714
sg67
g1699
sg60
(lp1715
g53
(g54
g55
NtRp1716
(dp1717
g58
(dp1718
g66
I4
ssg67
g1712
sg60
(lp1719
S'multipart/form-data; boundary=----WebKitFormBoundary7mEvBCJBtjEdKD9w'
p1720
asbasbasbag53
(g69
g55
NtRp1721
(dp1722
g58
(dp1723
sg67
g1582
sg60
(lp1724
g53
(g74
g55
NtRp1725
(dp1726
g58
(dp1727
g78
g79
ssg67
g1721
sg60
(lp1728
S'db_sessions'
p1729
asbag53
(g74
g55
NtRp1730
(dp1731
g58
(dp1732
g85
g86
ssg67
g1721
sg60
(lp1733
S':'
asbag53
(g74
g55
NtRp1734
(dp1735
g58
(dp1736
sg67
g1721
sg60
(lp1737
g53
(g54
g55
NtRp1738
(dp1739
g58
(dp1740
g66
I4
ssg67
g1734
sg60
(lp1741
S'set([])'
p1742
asbasbasbag53
(g69
g55
NtRp1743
(dp1744
g58
(dp1745
sg67
g1582
sg60
(lp1746
g53
(g74
g55
NtRp1747
(dp1748
g58
(dp1749
g78
g79
ssg67
g1743
sg60
(lp1750
S'debugging'
p1751
asbag53
(g74
g55
NtRp1752
(dp1753
g58
(dp1754
g85
g86
ssg67
g1743
sg60
(lp1755
S':'
asbag53
(g74
g55
NtRp1756
(dp1757
g58
(dp1758
sg67
g1743
sg60
(lp1759
g53
(g54
g55
NtRp1760
(dp1761
g58
(dp1762
g66
I4
ssg67
g1756
sg60
(lp1763
g96
asbasbasbag53
(g69
g55
NtRp1764
(dp1765
g58
(dp1766
sg67
g1582
sg60
(lp1767
g53
(g74
g55
NtRp1768
(dp1769
g58
(dp1770
g78
g79
ssg67
g1764
sg60
(lp1771
S'gluon_parent'
p1772
asbag53
(g74
g55
NtRp1773
(dp1774
g58
(dp1775
g85
g86
ssg67
g1764
sg60
(lp1776
S':'
asbag53
(g74
g55
NtRp1777
(dp1778
g58
(dp1779
sg67
g1764
sg60
(lp1780
g53
(g54
g55
NtRp1781
(dp1782
g58
(dp1783
g66
I4
ssg67
g1777
sg60
(lp1784
S'/Users/massimodipierro/Dropbox/web2py-appliances/web2py'
p1785
asbasbasbag53
(g69
g55
NtRp1786
(dp1787
g58
(dp1788
sg67
g1582
sg60
(lp1789
g53
(g74
g55
NtRp1790
(dp1791
g58
(dp1792
g78
g79
ssg67
g1786
sg60
(lp1793
S'http_accept'
p1794
asbag53
(g74
g55
NtRp1795
(dp1796
g58
(dp1797
g85
g86
ssg67
g1786
sg60
(lp1798
S':'
asbag53
(g74
g55
NtRp1799
(dp1800
g58
(dp1801
sg67
g1786
sg60
(lp1802
g53
(g54
g55
NtRp1803
(dp1804
g58
(dp1805
g66
I4
ssg67
g1799
sg60
(lp1806
S'text/html,application/xhtml+xml,application/xml;q=0.9,image/webp,*/*;q=0.8'
p1807
asbasbasbag53
(g69
g55
NtRp1808
(dp1809
g58
(dp1810
sg67
g1582
sg60
(lp1811
g53
(g74
g55
NtRp1812
(dp1813
g58
(dp1814
g78
g79
ssg67
g1808
sg60
(lp1815
S'http_accept_encoding'
p1816
asbag53
(g74
g55
NtRp1817
(dp1818
g58
(dp1819
g85
g86
ssg67
g1808
sg60
(lp1820
S':'
asbag53
(g74
g55
NtRp1821
(dp1822
g58
(dp1823
sg67
g1808
sg60
(lp1824
g53
(g54
g55
NtRp1825
(dp1826
g58
(dp1827
g66
I4
ssg67
g1821
sg60
(lp1828
S'gzip,deflate,sdch'
p1829
asbasbasbag53
(g69
g55
NtRp1830
(dp1831
g58
(dp1832
sg67
g1582
sg60
(lp1833
g53
(g74
g55
NtRp1834
(dp1835
g58
(dp1836
g78
g79
ssg67
g1830
sg60
(lp1837
S'http_accept_language'
p1838
asbag53
(g74
g55
NtRp1839
(dp1840
g58
(dp1841
g85
g86
ssg67
g1830
sg60
(lp1842
S':'
asbag53
(g74
g55
NtRp1843
(dp1844
g58
(dp1845
sg67
g1830
sg60
(lp1846
g53
(g54
g55
NtRp1847
(dp1848
g58
(dp1849
g66
I4
ssg67
g1843
sg60
(lp1850
S'en-US,en;q=0.8,it;q=0.6'
p1851
asbasbasbag53
(g69
g55
NtRp1852
(dp1853
g58
(dp1854
sg67
g1582
sg60
(lp1855
g53
(g74
g55
NtRp1856
(dp1857
g58
(dp1858
g78
g79
ssg67
g1852
sg60
(lp1859
S'http_connection'
p1860
asbag53
(g74
g55
NtRp1861
(dp1862
g58
(dp1863
g85
g86
ssg67
g1852
sg60
(lp1864
S':'
asbag53
(g74
g55
NtRp1865
(dp1866
g58
(dp1867
sg67
g1852
sg60
(lp1868
g53
(g54
g55
NtRp1869
(dp1870
g58
(dp1871
g66
I4
ssg67
g1865
sg60
(lp1872
S'keep-alive'
p1873
asbasbasbag53
(g69
g55
NtRp1874
(dp1875
g58
(dp1876
sg67
g1582
sg60
(lp1877
g53
(g74
g55
NtRp1878
(dp1879
g58
(dp1880
g78
g79
ssg67
g1874
sg60
(lp1881
S'http_content_length'
p1882
asbag53
(g74
g55
NtRp1883
(dp1884
g58
(dp1885
g85
g86
ssg67
g1874
sg60
(lp1886
S':'
asbag53
(g74
g55
NtRp1887
(dp1888
g58
(dp1889
sg67
g1874
sg60
(lp1890
g53
(g54
g55
NtRp1891
(dp1892
g58
(dp1893
g66
I4
ssg67
g1887
sg60
(lp1894
g1698
asbasbasbag53
(g69
g55
NtRp1895
(dp1896
g58
(dp1897
sg67
g1582
sg60
(lp1898
g53
(g74
g55
NtRp1899
(dp1900
g58
(dp1901
g78
g79
ssg67
g1895
sg60
(lp1902
S'http_content_type'
p1903
asbag53
(g74
g55
NtRp1904
(dp1905
g58
(dp1906
g85
g86
ssg67
g1895
sg60
(lp1907
S':'
asbag53
(g74
g55
NtRp1908
(dp1909
g58
(dp1910
sg67
g1895
sg60
(lp1911
g53
(g54
g55
NtRp1912
(dp1913
g58
(dp1914
g66
I4
ssg67
g1908
sg60
(lp1915
g1720
asbasbasbag53
(g69
g55
NtRp1916
(dp1917
g58
(dp1918
sg67
g1582
sg60
(lp1919
g53
(g74
g55
NtRp1920
(dp1921
g58
(dp1922
g78
g79
ssg67
g1916
sg60
(lp1923
S'http_cookie'
p1924
asbag53
(g74
g55
NtRp1925
(dp1926
g58
(dp1927
g85
g86
ssg67
g1916
sg60
(lp1928
S':'
asbag53
(g74
g55
NtRp1929
(dp1930
g58
(dp1931
sg67
g1916
sg60
(lp1932
g53
(g54
g55
NtRp1933
(dp1934
g58
(dp1935
g66
I4
ssg67
g1929
sg60
(lp1936
S'session_id_dpu=127.0.0.1-ffcc84a0-e88f-433e-97c6-e6d597fbf901; session_id_welcome=127.0.0.1-141bd1d5-ad14-4ea0-a511-fe18e3eb0448; session_id_app3=127.0.0.1-5ba33bc5-65e2-47ce-bb2d-2f2d8344af78; session_id_app5=127.0.0.1-7ab6dc0b-092e-4ba5-879e-ba8559086cbf; session_id_conf2py=127.0.0.1-2dbe5ea4-ef8e-49fa-8ce2-360e81a43529; session_id_admin=127.0.0.1-3798d2ba-0ce2-4a26-ad5f-a14f5c94c088; session_id_estore=127.0.0.1-b334c8b3-af47-4ed8-a29e-291f8961c883; session_id_bingapi=127.0.0.1-91382949-3545-4aa4-9370-ee4a261cc623'
p1937
asbasbasbag53
(g69
g55
NtRp1938
(dp1939
g58
(dp1940
sg67
g1582
sg60
(lp1941
g53
(g74
g55
NtRp1942
(dp1943
g58
(dp1944
g78
g79
ssg67
g1938
sg60
(lp1945
S'http_host'
p1946
asbag53
(g74
g55
NtRp1947
(dp1948
g58
(dp1949
g85
g86
ssg67
g1938
sg60
(lp1950
S':'
asbag53
(g74
g55
NtRp1951
(dp1952
g58
(dp1953
sg67
g1938
sg60
(lp1954
g53
(g54
g55
NtRp1955
(dp1956
g58
(dp1957
g66
I4
ssg67
g1951
sg60
(lp1958
S'127.0.0.1:8000'
p1959
asbasbasbag53
(g69
g55
NtRp1960
(dp1961
g58
(dp1962
sg67
g1582
sg60
(lp1963
g53
(g74
g55
NtRp1964
(dp1965
g58
(dp1966
g78
g79
ssg67
g1960
sg60
(lp1967
S'http_origin'
p1968
asbag53
(g74
g55
NtRp1969
(dp1970
g58
(dp1971
g85
g86
ssg67
g1960
sg60
(lp1972
S':'
asbag53
(g74
g55
NtRp1973
(dp1974
g58
(dp1975
sg67
g1960
sg60
(lp1976
g53
(g54
g55
NtRp1977
(dp1978
g58
(dp1979
g66
I4
ssg67
g1973
sg60
(lp1980
S'http://127.0.0.1:8000'
p1981
asbasbasbag53
(g69
g55
NtRp1982
(dp1983
g58
(dp1984
sg67
g1582
sg60
(lp1985
g53
(g74
g55
NtRp1986
(dp1987
g58
(dp1988
g78
g79
ssg67
g1982
sg60
(lp1989
S'http_referer'
p1990
asbag53
(g74
g55
NtRp1991
(dp1992
g58
(dp1993
g85
g86
ssg67
g1982
sg60
(lp1994
S':'
asbag53
(g74
g55
NtRp1995
(dp1996
g58
(dp1997
sg67
g1982
sg60
(lp1998
g53
(g54
g55
NtRp1999
(dp2000
g58
(dp2001
g66
I4
ssg67
g1995
sg60
(lp2002
S'http://127.0.0.1:8000/BingApi'
p2003
asbasbasbag53
(g69
g55
NtRp2004
(dp2005
g58
(dp2006
sg67
g1582
sg60
(lp2007
g53
(g74
g55
NtRp2008
(dp2009
g58
(dp2010
g78
g79
ssg67
g2004
sg60
(lp2011
S'http_user_agent'
p2012
asbag53
(g74
g55
NtRp2013
(dp2014
g58
(dp2015
g85
g86
ssg67
g2004
sg60
(lp2016
S':'
asbag53
(g74
g55
NtRp2017
(dp2018
g58
(dp2019
sg67
g2004
sg60
(lp2020
g53
(g54
g55
NtRp2021
(dp2022
g58
(dp2023
g66
I4
ssg67
g2017
sg60
(lp2024
S'Mozilla/5.0 (Macintosh; Intel Mac OS X 10_7_5) AppleWebKit/537.36 (KHTML, like Gecko) Chrome/30.0.1599.101 Safari/537.36'
p2025
asbasbasbag53
(g69
g55
NtRp2026
(dp2027
g58
(dp2028
sg67
g1582
sg60
(lp2029
g53
(g74
g55
NtRp2030
(dp2031
g58
(dp2032
g78
g79
ssg67
g2026
sg60
(lp2033
S'is_jython'
p2034
asbag53
(g74
g55
NtRp2035
(dp2036
g58
(dp2037
g85
g86
ssg67
g2026
sg60
(lp2038
S':'
asbag53
(g74
g55
NtRp2039
(dp2040
g58
(dp2041
sg67
g2026
sg60
(lp2042
g53
(g54
g55
NtRp2043
(dp2044
g58
(dp2045
g66
I4
ssg67
g2039
sg60
(lp2046
g96
asbasbasbag53
(g69
g55
NtRp2047
(dp2048
g58
(dp2049
sg67
g1582
sg60
(lp2050
g53
(g74
g55
NtRp2051
(dp2052
g58
(dp2053
g78
g79
ssg67
g2047
sg60
(lp2054
S'is_pypy'
p2055
asbag53
(g74
g55
NtRp2056
(dp2057
g58
(dp2058
g85
g86
ssg67
g2047
sg60
(lp2059
S':'
asbag53
(g74
g55
NtRp2060
(dp2061
g58
(dp2062
sg67
g2047
sg60
(lp2063
g53
(g54
g55
NtRp2064
(dp2065
g58
(dp2066
g66
I4
ssg67
g2060
sg60
(lp2067
g96
asbasbasbag53
(g69
g55
NtRp2068
(dp2069
g58
(dp2070
sg67
g1582
sg60
(lp2071
g53
(g74
g55
NtRp2072
(dp2073
g58
(dp2074
g78
g79
ssg67
g2068
sg60
(lp2075
S'path_info'
p2076
asbag53
(g74
g55
NtRp2077
(dp2078
g58
(dp2079
g85
g86
ssg67
g2068
sg60
(lp2080
S':'
asbag53
(g74
g55
NtRp2081
(dp2082
g58
(dp2083
sg67
g2068
sg60
(lp2084
g53
(g54
g55
NtRp2085
(dp2086
g58
(dp2087
g66
I4
ssg67
g2081
sg60
(lp2088
S'/BingApi'
p2089
asbasbasbag53
(g69
g55
NtRp2090
(dp2091
g58
(dp2092
sg67
g1582
sg60
(lp2093
g53
(g74
g55
NtRp2094
(dp2095
g58
(dp2096
g78
g79
ssg67
g2090
sg60
(lp2097
S'query_string'
p2098
asbag53
(g74
g55
NtRp2099
(dp2100
g58
(dp2101
g85
g86
ssg67
g2090
sg60
(lp2102
S':'
asbag53
(g74
g55
NtRp2103
(dp2104
g58
(dp2105
sg67
g2090
sg60
(lp2106
g53
(g54
g55
NtRp2107
(dp2108
g58
(dp2109
g66
I4
ssg67
g2103
sg60
(lp2110
S''
asbasbasbag53
(g69
g55
NtRp2111
(dp2112
g58
(dp2113
sg67
g1582
sg60
(lp2114
g53
(g74
g55
NtRp2115
(dp2116
g58
(dp2117
g78
g79
ssg67
g2111
sg60
(lp2118
S'remote_addr'
p2119
asbag53
(g74
g55
NtRp2120
(dp2121
g58
(dp2122
g85
g86
ssg67
g2111
sg60
(lp2123
S':'
asbag53
(g74
g55
NtRp2124
(dp2125
g58
(dp2126
sg67
g2111
sg60
(lp2127
g53
(g54
g55
NtRp2128
(dp2129
g58
(dp2130
g66
I4
ssg67
g2124
sg60
(lp2131
g186
asbasbasbag53
(g69
g55
NtRp2132
(dp2133
g58
(dp2134
sg67
g1582
sg60
(lp2135
g53
(g74
g55
NtRp2136
(dp2137
g58
(dp2138
g78
g79
ssg67
g2132
sg60
(lp2139
S'remote_port'
p2140
asbag53
(g74
g55
NtRp2141
(dp2142
g58
(dp2143
g85
g86
ssg67
g2132
sg60
(lp2144
S':'
asbag53
(g74
g55
NtRp2145
(dp2146
g58
(dp2147
sg67
g2132
sg60
(lp2148
g53
(g54
g55
NtRp2149
(dp2150
g58
(dp2151
g66
I4
ssg67
g2145
sg60
(lp2152
S'56205'
p2153
asbasbasbag53
(g69
g55
NtRp2154
(dp2155
g58
(dp2156
sg67
g1582
sg60
(lp2157
g53
(g74
g55
NtRp2158
(dp2159
g58
(dp2160
g78
g79
ssg67
g2154
sg60
(lp2161
S'request_method'
p2162
asbag53
(g74
g55
NtRp2163
(dp2164
g58
(dp2165
g85
g86
ssg67
g2154
sg60
(lp2166
S':'
asbag53
(g74
g55
NtRp2167
(dp2168
g58
(dp2169
sg67
g2154
sg60
(lp2170
g53
(g54
g55
NtRp2171
(dp2172
g58
(dp2173
g66
I4
ssg67
g2167
sg60
(lp2174
S'POST'
p2175
asbasbasbag53
(g69
g55
NtRp2176
(dp2177
g58
(dp2178
sg67
g1582
sg60
(lp2179
g53
(g74
g55
NtRp2180
(dp2181
g58
(dp2182
g78
g79
ssg67
g2176
sg60
(lp2183
S'script_name'
p2184
asbag53
(g74
g55
NtRp2185
(dp2186
g58
(dp2187
g85
g86
ssg67
g2176
sg60
(lp2188
S':'
asbag53
(g74
g55
NtRp2189
(dp2190
g58
(dp2191
sg67
g2176
sg60
(lp2192
g53
(g54
g55
NtRp2193
(dp2194
g58
(dp2195
g66
I4
ssg67
g2189
sg60
(lp2196
S''
asbasbasbag53
(g69
g55
NtRp2197
(dp2198
g58
(dp2199
sg67
g1582
sg60
(lp2200
g53
(g74
g55
NtRp2201
(dp2202
g58
(dp2203
g78
g79
ssg67
g2197
sg60
(lp2204
S'server_name'
p2205
asbag53
(g74
g55
NtRp2206
(dp2207
g58
(dp2208
g85
g86
ssg67
g2197
sg60
(lp2209
S':'
asbag53
(g74
g55
NtRp2210
(dp2211
g58
(dp2212
sg67
g2197
sg60
(lp2213
g53
(g54
g55
NtRp2214
(dp2215
g58
(dp2216
g66
I4
ssg67
g2210
sg60
(lp2217
S'me'
p2218
asbasbasbag53
(g69
g55
NtRp2219
(dp2220
g58
(dp2221
sg67
g1582
sg60
(lp2222
g53
(g74
g55
NtRp2223
(dp2224
g58
(dp2225
g78
g79
ssg67
g2219
sg60
(lp2226
S'server_port'
p2227
asbag53
(g74
g55
NtRp2228
(dp2229
g58
(dp2230
g85
g86
ssg67
g2219
sg60
(lp2231
S':'
asbag53
(g74
g55
NtRp2232
(dp2233
g58
(dp2234
sg67
g2219
sg60
(lp2235
g53
(g54
g55
NtRp2236
(dp2237
g58
(dp2238
g66
I4
ssg67
g2232
sg60
(lp2239
S'8000'
p2240
asbasbasbag53
(g69
g55
NtRp2241
(dp2242
g58
(dp2243
sg67
g1582
sg60
(lp2244
g53
(g74
g55
NtRp2245
(dp2246
g58
(dp2247
g78
g79
ssg67
g2241
sg60
(lp2248
S'server_protocol'
p2249
asbag53
(g74
g55
NtRp2250
(dp2251
g58
(dp2252
g85
g86
ssg67
g2241
sg60
(lp2253
S':'
asbag53
(g74
g55
NtRp2254
(dp2255
g58
(dp2256
sg67
g2241
sg60
(lp2257
g53
(g54
g55
NtRp2258
(dp2259
g58
(dp2260
g66
I4
ssg67
g2254
sg60
(lp2261
S'HTTP/1.1'
p2262
asbasbasbag53
(g69
g55
NtRp2263
(dp2264
g58
(dp2265
sg67
g1582
sg60
(lp2266
g53
(g74
g55
NtRp2267
(dp2268
g58
(dp2269
g78
g79
ssg67
g2263
sg60
(lp2270
S'server_software'
p2271
asbag53
(g74
g55
NtRp2272
(dp2273
g58
(dp2274
g85
g86
ssg67
g2263
sg60
(lp2275
S':'
asbag53
(g74
g55
NtRp2276
(dp2277
g58
(dp2278
sg67
g2263
sg60
(lp2279
g53
(g54
g55
NtRp2280
(dp2281
g58
(dp2282
g66
I4
ssg67
g2276
sg60
(lp2283
S'Rocket 1.2.4'
p2284
asbasbasbag53
(g69
g55
NtRp2285
(dp2286
g58
(dp2287
sg67
g1582
sg60
(lp2288
g53
(g74
g55
NtRp2289
(dp2290
g58
(dp2291
g78
g79
ssg67
g2285
sg60
(lp2292
S'web2py_crontype'
p2293
asbag53
(g74
g55
NtRp2294
(dp2295
g58
(dp2296
g85
g86
ssg67
g2285
sg60
(lp2297
S':'
asbag53
(g74
g55
NtRp2298
(dp2299
g58
(dp2300
sg67
g2285
sg60
(lp2301
g53
(g54
g55
NtRp2302
(dp2303
g58
(dp2304
g66
I4
ssg67
g2298
sg60
(lp2305
S'hard'
p2306
asbasbasbag53
(g69
g55
NtRp2307
(dp2308
g58
(dp2309
sg67
g1582
sg60
(lp2310
g53
(g74
g55
NtRp2311
(dp2312
g58
(dp2313
g78
g79
ssg67
g2307
sg60
(lp2314
S'web2py_path'
p2315
asbag53
(g74
g55
NtRp2316
(dp2317
g58
(dp2318
g85
g86
ssg67
g2307
sg60
(lp2319
S':'
asbag53
(g74
g55
NtRp2320
(dp2321
g58
(dp2322
sg67
g2307
sg60
(lp2323
g53
(g54
g55
NtRp2324
(dp2325
g58
(dp2326
g66
I4
ssg67
g2320
sg60
(lp2327
g1629
asbasbasbag53
(g69
g55
NtRp2328
(dp2329
g58
(dp2330
sg67
g1582
sg60
(lp2331
g53
(g74
g55
NtRp2332
(dp2333
g58
(dp2334
g78
g79
ssg67
g2328
sg60
(lp2335
S'web2py_version'
p2336
asbag53
(g74
g55
NtRp2337
(dp2338
g58
(dp2339
g85
g86
ssg67
g2328
sg60
(lp2340
S':'
asbag53
(g74
g55
NtRp2341
(dp2342
g58
(dp2343
sg67
g2328
sg60
(lp2344
g53
(g54
g55
NtRp2345
(dp2346
g58
(dp2347
g66
I4
ssg67
g2341
sg60
(lp2348
g53
(g62
g55
NtRp2349
(dp2350
g58
(dp2351
g66
I3
ssg67
Nsg60
(lp2352
g53
(g69
g55
NtRp2353
(dp2354
g58
(dp2355
sg67
g2349
sg60
(lp2356
g53
(g74
g55
NtRp2357
(dp2358
g58
(dp2359
sg67
g2353
sg60
(lp2360
g53
(g54
g55
NtRp2361
(dp2362
g58
(dp2363
g66
I3
ssg67
g2357
sg60
(lp2364
S'1'
asbasbasbag53
(g69
g55
NtRp2365
(dp2366
g58
(dp2367
sg67
g2349
sg60
(lp2368
g53
(g74
g55
NtRp2369
(dp2370
g58
(dp2371
sg67
g2365
sg60
(lp2372
g53
(g54
g55
NtRp2373
(dp2374
g58
(dp2375
g66
I3
ssg67
g2369
sg60
(lp2376
S'99'
p2377
asbasbasbag53
(g69
g55
NtRp2378
(dp2379
g58
(dp2380
sg67
g2349
sg60
(lp2381
g53
(g74
g55
NtRp2382
(dp2383
g58
(dp2384
sg67
g2378
sg60
(lp2385
g53
(g54
g55
NtRp2386
(dp2387
g58
(dp2388
g66
I3
ssg67
g2382
sg60
(lp2389
S'4'
asbasbasbag53
(g69
g55
NtRp2390
(dp2391
g58
(dp2392
sg67
g2349
sg60
(lp2393
g53
(g74
g55
NtRp2394
(dp2395
g58
(dp2396
sg67
g2390
sg60
(lp2397
g53
(g54
g55
NtRp2398
(dp2399
g58
(dp2400
g66
I3
ssg67
g2394
sg60
(lp2401
S'datetime.datetime(2011, 12, 19, 23, 20, 9)'
p2402
asbasbasbag53
(g69
g55
NtRp2403
(dp2404
g58
(dp2405
sg67
g2349
sg60
(lp2406
g53
(g74
g55
NtRp2407
(dp2408
g58
(dp2409
sg67
g2403
sg60
(lp2410
g53
(g54
g55
NtRp2411
(dp2412
g58
(dp2413
g66
I3
ssg67
g2407
sg60
(lp2414
S'stable'
p2415
asbasbasbasbasbasbasbag53
(g69
g55
NtRp2416
(dp2417
g58
(dp2418
sg67
g1582
sg60
(lp2419
g53
(g74
g55
NtRp2420
(dp2421
g58
(dp2422
g78
g79
ssg67
g2416
sg60
(lp2423
S'wsgi_errors'
p2424
asbag53
(g74
g55
NtRp2425
(dp2426
g58
(dp2427
g85
g86
ssg67
g2416
sg60
(lp2428
S':'
asbag53
(g74
g55
NtRp2429
(dp2430
g58
(dp2431
sg67
g2416
sg60
(lp2432
g53
(g54
g55
NtRp2433
(dp2434
g58
(dp2435
g66
I4
ssg67
g2429
sg60
(lp2436
S"<open file '<stderr>', mode 'w' at 0x16a0b0>"
p2437
asbasbasbag53
(g69
g55
NtRp2438
(dp2439
g58
(dp2440
sg67
g1582
sg60
(lp2441
g53
(g74
g55
NtRp2442
(dp2443
g58
(dp2444
g78
g79
ssg67
g2438
sg60
(lp2445
S'wsgi_file_wrapper'
p2446
asbag53
(g74
g55
NtRp2447
(dp2448
g58
(dp2449
g85
g86
ssg67
g2438
sg60
(lp2450
S':'
asbag53
(g74
g55
NtRp2451
(dp2452
g58
(dp2453
sg67
g2438
sg60
(lp2454
g53
(g54
g55
NtRp2455
(dp2456
g58
(dp2457
g66
I4
ssg67
g2451
sg60
(lp2458
S'<class wsgiref.util.FileWrapper at 0x73a600>'
p2459
asbasbasbag53
(g69
g55
NtRp2460
(dp2461
g58
(dp2462
sg67
g1582
sg60
(lp2463
g53
(g74
g55
NtRp2464
(dp2465
g58
(dp2466
g78
g79
ssg67
g2460
sg60
(lp2467
S'wsgi_input'
p2468
asbag53
(g74
g55
NtRp2469
(dp2470
g58
(dp2471
g85
g86
ssg67
g2460
sg60
(lp2472
S':'
asbag53
(g74
g55
NtRp2473
(dp2474
g58
(dp2475
sg67
g2460
sg60
(lp2476
g53
(g54
g55
NtRp2477
(dp2478
g58
(dp2479
g66
I4
ssg67
g2473
sg60
(lp2480
S'<socket._fileobject object at 0x712470>'
p2481
asbasbasbag53
(g69
g55
NtRp2482
(dp2483
g58
(dp2484
sg67
g1582
sg60
(lp2485
g53
(g74
g55
NtRp2486
(dp2487
g58
(dp2488
g78
g79
ssg67
g2482
sg60
(lp2489
S'wsgi_multiprocess'
p2490
asbag53
(g74
g55
NtRp2491
(dp2492
g58
(dp2493
g85
g86
ssg67
g2482
sg60
(lp2494
S':'
asbag53
(g74
g55
NtRp2495
(dp2496
g58
(dp2497
sg67
g2482
sg60
(lp2498
g53
(g54
g55
NtRp2499
(dp2500
g58
(dp2501
g66
I4
ssg67
g2495
sg60
(lp2502
g96
asbasbasbag53
(g69
g55
NtRp2503
(dp2504
g58
(dp2505
sg67
g1582
sg60
(lp2506
g53
(g74
g55
NtRp2507
(dp2508
g58
(dp2509
g78
g79
ssg67
g2503
sg60
(lp2510
S'wsgi_multithread'
p2511
asbag53
(g74
g55
NtRp2512
(dp2513
g58
(dp2514
g85
g86
ssg67
g2503
sg60
(lp2515
S':'
asbag53
(g74
g55
NtRp2516
(dp2517
g58
(dp2518
sg67
g2503
sg60
(lp2519
g53
(g54
g55
NtRp2520
(dp2521
g58
(dp2522
g66
I4
ssg67
g2516
sg60
(lp2523
S'True'
p2524
asbasbasbag53
(g69
g55
NtRp2525
(dp2526
g58
(dp2527
sg67
g1582
sg60
(lp2528
g53
(g74
g55
NtRp2529
(dp2530
g58
(dp2531
g78
g79
ssg67
g2525
sg60
(lp2532
S'wsgi_run_once'
p2533
asbag53
(g74
g55
NtRp2534
(dp2535
g58
(dp2536
g85
g86
ssg67
g2525
sg60
(lp2537
S':'
asbag53
(g74
g55
NtRp2538
(dp2539
g58
(dp2540
sg67
g2525
sg60
(lp2541
g53
(g54
g55
NtRp2542
(dp2543
g58
(dp2544
g66
I4
ssg67
g2538
sg60
(lp2545
g96
asbasbasbag53
(g69
g55
NtRp2546
(dp2547
g58
(dp2548
sg67
g1582
sg60
(lp2549
g53
(g74
g55
NtRp2550
(dp2551
g58
(dp2552
g78
g79
ssg67
g2546
sg60
(lp2553
S'wsgi_url_scheme'
p2554
asbag53
(g74
g55
NtRp2555
(dp2556
g58
(dp2557
g85
g86
ssg67
g2546
sg60
(lp2558
S':'
asbag53
(g74
g55
NtRp2559
(dp2560
g58
(dp2561
sg67
g2546
sg60
(lp2562
g53
(g54
g55
NtRp2563
(dp2564
g58
(dp2565
g66
I4
ssg67
g2559
sg60
(lp2566
S'http'
p2567
asbasbasbag53
(g69
g55
NtRp2568
(dp2569
g58
(dp2570
sg67
g1582
sg60
(lp2571
g53
(g74
g55
NtRp2572
(dp2573
g58
(dp2574
g78
g79
ssg67
g2568
sg60
(lp2575
S'wsgi_version'
p2576
asbag53
(g74
g55
NtRp2577
(dp2578
g58
(dp2579
g85
g86
ssg67
g2568
sg60
(lp2580
S':'
asbag53
(g74
g55
NtRp2581
(dp2582
g58
(dp2583
sg67
g2568
sg60
(lp2584
g53
(g54
g55
NtRp2585
(dp2586
g58
(dp2587
g66
I4
ssg67
g2581
sg60
(lp2588
g53
(g62
g55
NtRp2589
(dp2590
g58
(dp2591
g66
I3
ssg67
Nsg60
(lp2592
g53
(g69
g55
NtRp2593
(dp2594
g58
(dp2595
sg67
g2589
sg60
(lp2596
g53
(g74
g55
NtRp2597
(dp2598
g58
(dp2599
sg67
g2593
sg60
(lp2600
g53
(g54
g55
NtRp2601
(dp2602
g58
(dp2603
g66
I3
ssg67
g2597
sg60
(lp2604
S'1'
asbasbasbag53
(g69
g55
NtRp2605
(dp2606
g58
(dp2607
sg67
g2589
sg60
(lp2608
g53
(g74
g55
NtRp2609
(dp2610
g58
(dp2611
sg67
g2605
sg60
(lp2612
g53
(g54
g55
NtRp2613
(dp2614
g58
(dp2615
g66
I3
ssg67
g2609
sg60
(lp2616
S'0'
asbasbasbasbasbasbasbasbasbasbasbag53
(g69
g55
NtRp2617
(dp2618
g58
(dp2619
sg67
g63
sg60
(lp2620
g53
(g74
g55
NtRp2621
(dp2622
g58
(dp2623
g78
g79
ssg67
g2617
sg60
(lp2624
S'extension'
p2625
asbag53
(g74
g55
NtRp2626
(dp2627
g58
(dp2628
g85
g86
ssg67
g2617
sg60
(lp2629
S':'
asbag53
(g74
g55
NtRp2630
(dp2631
g58
(dp2632
sg67
g2617
sg60
(lp2633
g53
(g54
g55
NtRp2634
(dp2635
g58
(dp2636
g66
I5
ssg67
g2630
sg60
(lp2637
S'html'
p2638
asbasbasbag53
(g69
g55
NtRp2639
(dp2640
g58
(dp2641
sg67
g63
sg60
(lp2642
g53
(g74
g55
NtRp2643
(dp2644
g58
(dp2645
g78
g79
ssg67
g2639
sg60
(lp2646
S'folder'
p2647
asbag53
(g74
g55
NtRp2648
(dp2649
g58
(dp2650
g85
g86
ssg67
g2639
sg60
(lp2651
S':'
asbag53
(g74
g55
NtRp2652
(dp2653
g58
(dp2654
sg67
g2639
sg60
(lp2655
g53
(g54
g55
NtRp2656
(dp2657
g58
(dp2658
g66
I5
ssg67
g2652
sg60
(lp2659
S'/Users/massimodipierro/Dropbox/web2py-appliances/web2py/applications/BingApi/'
p2660
asbasbasbag53
(g69
g55
NtRp2661
(dp2662
g58
(dp2663
sg67
g63
sg60
(lp2664
g53
(g74
g55
NtRp2665
(dp2666
g58
(dp2667
g78
g79
ssg67
g2661
sg60
(lp2668
S'function'
p2669
asbag53
(g74
g55
NtRp2670
(dp2671
g58
(dp2672
g85
g86
ssg67
g2661
sg60
(lp2673
S':'
asbag53
(g74
g55
NtRp2674
(dp2675
g58
(dp2676
sg67
g2661
sg60
(lp2677
g53
(g54
g55
NtRp2678
(dp2679
g58
(dp2680
g66
I5
ssg67
g2674
sg60
(lp2681
S'index'
p2682
asbasbasbag53
(g69
g55
NtRp2683
(dp2684
g58
(dp2685
sg67
g63
sg60
(lp2686
g53
(g74
g55
NtRp2687
(dp2688
g58
(dp2689
g78
g79
ssg67
g2683
sg60
(lp2690
S'get_vars'
p2691
asbag53
(g74
g55
NtRp2692
(dp2693
g58
(dp2694
g85
g86
ssg67
g2683
sg60
(lp2695
S':'
asbag53
(g74
g55
NtRp2696
(dp2697
g58
(dp2698
sg67
g2683
sg60
(lp2699
g53
(g54
g55
NtRp2700
(dp2701
g58
(dp2702
g66
I5
ssg67
g2696
sg60
(lp2703
g53
(g62
g55
NtRp2704
(dp2705
g58
(dp2706
g66
I4
ssg67
Nsg60
(lp2707
sbasbasbasbag53
(g69
g55
NtRp2708
(dp2709
g58
(dp2710
sg67
g63
sg60
(lp2711
g53
(g74
g55
NtRp2712
(dp2713
g58
(dp2714
g78
g79
ssg67
g2708
sg60
(lp2715
S'global_settings'
p2716
asbag53
(g74
g55
NtRp2717
(dp2718
g58
(dp2719
g85
g86
ssg67
g2708
sg60
(lp2720
S':'
asbag53
(g74
g55
NtRp2721
(dp2722
g58
(dp2723
sg67
g2708
sg60
(lp2724
g53
(g54
g55
NtRp2725
(dp2726
g58
(dp2727
g66
I5
ssg67
g2721
sg60
(lp2728
g53
(g62
g55
NtRp2729
(dp2730
g58
(dp2731
g66
I4
ssg67
Nsg60
(lp2732
g53
(g69
g55
NtRp2733
(dp2734
g58
(dp2735
sg67
g2729
sg60
(lp2736
g53
(g74
g55
NtRp2737
(dp2738
g58
(dp2739
g78
g79
ssg67
g2733
sg60
(lp2740
g1594
asbag53
(g74
g55
NtRp2741
(dp2742
g58
(dp2743
g85
g86
ssg67
g2733
sg60
(lp2744
S':'
asbag53
(g74
g55
NtRp2745
(dp2746
g58
(dp2747
sg67
g2733
sg60
(lp2748
g53
(g54
g55
NtRp2749
(dp2750
g58
(dp2751
g66
I4
ssg67
g2745
sg60
(lp2752
S"set(['/Users/massimodipierro/Dropbox/web2py-appliances/web2py/applications/BingApi/'])"
p2753
asbasbasbag53
(g69
g55
NtRp2754
(dp2755
g58
(dp2756
sg67
g2729
sg60
(lp2757
g53
(g74
g55
NtRp2758
(dp2759
g58
(dp2760
g78
g79
ssg67
g2754
sg60
(lp2761
g1616
asbag53
(g74
g55
NtRp2762
(dp2763
g58
(dp2764
g85
g86
ssg67
g2754
sg60
(lp2765
S':'
asbag53
(g74
g55
NtRp2766
(dp2767
g58
(dp2768
sg67
g2754
sg60
(lp2769
g53
(g54
g55
NtRp2770
(dp2771
g58
(dp2772
g66
I4
ssg67
g2766
sg60
(lp2773
g1629
asbasbasbag53
(g69
g55
NtRp2774
(dp2775
g58
(dp2776
sg67
g2729
sg60
(lp2777
g53
(g74
g55
NtRp2778
(dp2779
g58
(dp2780
g78
g79
ssg67
g2774
sg60
(lp2781
g1638
asbag53
(g74
g55
NtRp2782
(dp2783
g58
(dp2784
g85
g86
ssg67
g2774
sg60
(lp2785
S':'
asbag53
(g74
g55
NtRp2786
(dp2787
g58
(dp2788
sg67
g2774
sg60
(lp2789
g53
(g54
g55
NtRp2790
(dp2791
g58
(dp2792
g66
I4
ssg67
g2786
sg60
(lp2793
g53
(g62
g55
NtRp2794
(dp2795
g58
(dp2796
g66
I3
ssg67
Nsg60
(lp2797
sbasbasbasbag53
(g69
g55
NtRp2798
(dp2799
g58
(dp2800
sg67
g2729
sg60
(lp2801
g53
(g74
g55
NtRp2802
(dp2803
g58
(dp2804
g78
g79
ssg67
g2798
sg60
(lp2805
g1663
asbag53
(g74
g55
NtRp2806
(dp2807
g58
(dp2808
g85
g86
ssg67
g2798
sg60
(lp2809
S':'
asbag53
(g74
g55
NtRp2810
(dp2811
g58
(dp2812
sg67
g2798
sg60
(lp2813
g53
(g54
g55
NtRp2814
(dp2815
g58
(dp2816
g66
I4
ssg67
g2810
sg60
(lp2817
S"<Values at 0x51f328: {'verbose': False, 'ip': '127.0.0.1', 'shutdown_timeout': 5, 'taskbar': False, 'nocron': False, 'pid_filename': 'httpserver.pid', 'maxthreads': None, 'softcron': False, 'server_name': 'me', 'bpython': False, 'nogui': False, 'port': 8000, 'extcron': False, 'debuglevel': 30, 'test': None, 'folder': '/Users/massimodipierro/Dropbox/web2py-appliances/web2py', 'config': '', 'import_models': False, 'winservice': '', 'shell': None, 'run': '', 'log_filename': 'httpserver.log', 'args': [''], 'socket_timeout': 1, 'ssl_ca_certificate': None, 'scheduler': None, 'profiler_filename': None, 'ssl_private_key': '', 'password': 'hello', 'request_queue_size': 5, 'ssl_certificate': '', 'cronjob': False, 'numthreads': None, 'quiet': False, 'interfaces': None, 'minthreads': None, 'timeout': 10, 'plain': False, 'nobanner': False}>"
p2818
asbasbasbag53
(g69
g55
NtRp2819
(dp2820
g58
(dp2821
sg67
g2729
sg60
(lp2822
g53
(g74
g55
NtRp2823
(dp2824
g58
(dp2825
g78
g79
ssg67
g2819
sg60
(lp2826
g1729
asbag53
(g74
g55
NtRp2827
(dp2828
g58
(dp2829
g85
g86
ssg67
g2819
sg60
(lp2830
S':'
asbag53
(g74
g55
NtRp2831
(dp2832
g58
(dp2833
sg67
g2819
sg60
(lp2834
g53
(g54
g55
NtRp2835
(dp2836
g58
(dp2837
g66
I4
ssg67
g2831
sg60
(lp2838
S'set([])'
p2839
asbasbasbag53
(g69
g55
NtRp2840
(dp2841
g58
(dp2842
sg67
g2729
sg60
(lp2843
g53
(g74
g55
NtRp2844
(dp2845
g58
(dp2846
g78
g79
ssg67
g2840
sg60
(lp2847
g1751
asbag53
(g74
g55
NtRp2848
(dp2849
g58
(dp2850
g85
g86
ssg67
g2840
sg60
(lp2851
S':'
asbag53
(g74
g55
NtRp2852
(dp2853
g58
(dp2854
sg67
g2840
sg60
(lp2855
g53
(g54
g55
NtRp2856
(dp2857
g58
(dp2858
g66
I4
ssg67
g2852
sg60
(lp2859
g96
asbasbasbag53
(g69
g55
NtRp2860
(dp2861
g58
(dp2862
sg67
g2729
sg60
(lp2863
g53
(g74
g55
NtRp2864
(dp2865
g58
(dp2866
g78
g79
ssg67
g2860
sg60
(lp2867
g1772
asbag53
(g74
g55
NtRp2868
(dp2869
g58
(dp2870
g85
g86
ssg67
g2860
sg60
(lp2871
S':'
asbag53
(g74
g55
NtRp2872
(dp2873
g58
(dp2874
sg67
g2860
sg60
(lp2875
g53
(g54
g55
NtRp2876
(dp2877
g58
(dp2878
g66
I4
ssg67
g2872
sg60
(lp2879
g1785
asbasbasbag53
(g69
g55
NtRp2880
(dp2881
g58
(dp2882
sg67
g2729
sg60
(lp2883
g53
(g74
g55
NtRp2884
(dp2885
g58
(dp2886
g78
g79
ssg67
g2880
sg60
(lp2887
g2034
asbag53
(g74
g55
NtRp2888
(dp2889
g58
(dp2890
g85
g86
ssg67
g2880
sg60
(lp2891
S':'
asbag53
(g74
g55
NtRp2892
(dp2893
g58
(dp2894
sg67
g2880
sg60
(lp2895
g53
(g54
g55
NtRp2896
(dp2897
g58
(dp2898
g66
I4
ssg67
g2892
sg60
(lp2899
g96
asbasbasbag53
(g69
g55
NtRp2900
(dp2901
g58
(dp2902
sg67
g2729
sg60
(lp2903
g53
(g74
g55
NtRp2904
(dp2905
g58
(dp2906
g78
g79
ssg67
g2900
sg60
(lp2907
g2055
asbag53
(g74
g55
NtRp2908
(dp2909
g58
(dp2910
g85
g86
ssg67
g2900
sg60
(lp2911
S':'
asbag53
(g74
g55
NtRp2912
(dp2913
g58
(dp2914
sg67
g2900
sg60
(lp2915
g53
(g54
g55
NtRp2916
(dp2917
g58
(dp2918
g66
I4
ssg67
g2912
sg60
(lp2919
g96
asbasbasbag53
(g69
g55
NtRp2920
(dp2921
g58
(dp2922
sg67
g2729
sg60
(lp2923
g53
(g74
g55
NtRp2924
(dp2925
g58
(dp2926
g78
g79
ssg67
g2920
sg60
(lp2927
g2293
asbag53
(g74
g55
NtRp2928
(dp2929
g58
(dp2930
g85
g86
ssg67
g2920
sg60
(lp2931
S':'
asbag53
(g74
g55
NtRp2932
(dp2933
g58
(dp2934
sg67
g2920
sg60
(lp2935
g53
(g54
g55
NtRp2936
(dp2937
g58
(dp2938
g66
I4
ssg67
g2932
sg60
(lp2939
g2306
asbasbasbag53
(g69
g55
NtRp2940
(dp2941
g58
(dp2942
sg67
g2729
sg60
(lp2943
g53
(g74
g55
NtRp2944
(dp2945
g58
(dp2946
g78
g79
ssg67
g2940
sg60
(lp2947
g2336
asbag53
(g74
g55
NtRp2948
(dp2949
g58
(dp2950
g85
g86
ssg67
g2940
sg60
(lp2951
S':'
asbag53
(g74
g55
NtRp2952
(dp2953
g58
(dp2954
sg67
g2940
sg60
(lp2955
g53
(g54
g55
NtRp2956
(dp2957
g58
(dp2958
g66
I4
ssg67
g2952
sg60
(lp2959
g53
(g62
g55
NtRp2960
(dp2961
g58
(dp2962
g66
I3
ssg67
Nsg60
(lp2963
g53
(g69
g55
NtRp2964
(dp2965
g58
(dp2966
sg67
g2960
sg60
(lp2967
g53
(g74
g55
NtRp2968
(dp2969
g58
(dp2970
sg67
g2964
sg60
(lp2971
g53
(g54
g55
NtRp2972
(dp2973
g58
(dp2974
g66
I3
ssg67
g2968
sg60
(lp2975
S'1'
asbasbasbag53
(g69
g55
NtRp2976
(dp2977
g58
(dp2978
sg67
g2960
sg60
(lp2979
g53
(g74
g55
NtRp2980
(dp2981
g58
(dp2982
sg67
g2976
sg60
(lp2983
g53
(g54
g55
NtRp2984
(dp2985
g58
(dp2986
g66
I3
ssg67
g2980
sg60
(lp2987
S'99'
p2988
asbasbasbag53
(g69
g55
NtRp2989
(dp2990
g58
(dp2991
sg67
g2960
sg60
(lp2992
g53
(g74
g55
NtRp2993
(dp2994
g58
(dp2995
sg67
g2989
sg60
(lp2996
g53
(g54
g55
NtRp2997
(dp2998
g58
(dp2999
g66
I3
ssg67
g2993
sg60
(lp3000
S'4'
asbasbasbag53
(g69
g55
NtRp3001
(dp3002
g58
(dp3003
sg67
g2960
sg60
(lp3004
g53
(g74
g55
NtRp3005
(dp3006
g58
(dp3007
sg67
g3001
sg60
(lp3008
g53
(g54
g55
NtRp3009
(dp3010
g58
(dp3011
g66
I3
ssg67
g3005
sg60
(lp3012
S'datetime.datetime(2011, 12, 19, 23, 20, 9)'
p3013
asbasbasbag53
(g69
g55
NtRp3014
(dp3015
g58
(dp3016
sg67
g2960
sg60
(lp3017
g53
(g74
g55
NtRp3018
(dp3019
g58
(dp3020
sg67
g3014
sg60
(lp3021
g53
(g54
g55
NtRp3022
(dp3023
g58
(dp3024
g66
I3
ssg67
g3018
sg60
(lp3025
g2415
asbasbasbasbasbasbasbasbasbasbasbag53
(g69
g55
NtRp3026
(dp3027
g58
(dp3028
sg67
g63
sg60
(lp3029
g53
(g74
g55
NtRp3030
(dp3031
g58
(dp3032
g78
g79
ssg67
g3026
sg60
(lp3033
S'is_https'
p3034
asbag53
(g74
g55
NtRp3035
(dp3036
g58
(dp3037
g85
g86
ssg67
g3026
sg60
(lp3038
S':'
asbag53
(g74
g55
NtRp3039
(dp3040
g58
(dp3041
sg67
g3026
sg60
(lp3042
g53
(g54
g55
NtRp3043
(dp3044
g58
(dp3045
g66
I5
ssg67
g3039
sg60
(lp3046
g96
asbasbasbag53
(g69
g55
NtRp3047
(dp3048
g58
(dp3049
sg67
g63
sg60
(lp3050
g53
(g74
g55
NtRp3051
(dp3052
g58
(dp3053
g78
g79
ssg67
g3047
sg60
(lp3054
S'is_local'
p3055
asbag53
(g74
g55
NtRp3056
(dp3057
g58
(dp3058
g85
g86
ssg67
g3047
sg60
(lp3059
S':'
asbag53
(g74
g55
NtRp3060
(dp3061
g58
(dp3062
sg67
g3047
sg60
(lp3063
g53
(g54
g55
NtRp3064
(dp3065
g58
(dp3066
g66
I5
ssg67
g3060
sg60
(lp3067
g2524
asbasbasbag53
(g69
g55
NtRp3068
(dp3069
g58
(dp3070
sg67
g63
sg60
(lp3071
g53
(g74
g55
NtRp3072
(dp3073
g58
(dp3074
g78
g79
ssg67
g3068
sg60
(lp3075
S'is_restful'
p3076
asbag53
(g74
g55
NtRp3077
(dp3078
g58
(dp3079
g85
g86
ssg67
g3068
sg60
(lp3080
S':'
asbag53
(g74
g55
NtRp3081
(dp3082
g58
(dp3083
sg67
g3068
sg60
(lp3084
g53
(g54
g55
NtRp3085
(dp3086
g58
(dp3087
g66
I5
ssg67
g3081
sg60
(lp3088
g96
asbasbasbag53
(g69
g55
NtRp3089
(dp3090
g58
(dp3091
sg67
g63
sg60
(lp3092
g53
(g74
g55
NtRp3093
(dp3094
g58
(dp3095
g78
g79
ssg67
g3089
sg60
(lp3096
S'now'
p3097
asbag53
(g74
g55
NtRp3098
(dp3099
g58
(dp3100
g85
g86
ssg67
g3089
sg60
(lp3101
S':'
asbag53
(g74
g55
NtRp3102
(dp3103
g58
(dp3104
sg67
g3089
sg60
(lp3105
g53
(g54
g55
NtRp3106
(dp3107
g58
(dp3108
g66
I5
ssg67
g3102
sg60
(lp3109
S'datetime.datetime(2013, 11, 18, 14, 11, 33, 322400)'
p3110
asbasbasbag53
(g69
g55
NtRp3111
(dp3112
g58
(dp3113
sg67
g63
sg60
(lp3114
g53
(g74
g55
NtRp3115
(dp3116
g58
(dp3117
g78
g79
ssg67
g3111
sg60
(lp3118
S'post_vars'
p3119
asbag53
(g74
g55
NtRp3120
(dp3121
g58
(dp3122
g85
g86
ssg67
g3111
sg60
(lp3123
S':'
asbag53
(g74
g55
NtRp3124
(dp3125
g58
(dp3126
sg67
g3111
sg60
(lp3127
g53
(g54
g55
NtRp3128
(dp3129
g58
(dp3130
g66
I5
ssg67
g3124
sg60
(lp3131
g53
(g62
g55
NtRp3132
(dp3133
g58
(dp3134
g66
I4
ssg67
Nsg60
(lp3135
g53
(g69
g55
NtRp3136
(dp3137
g58
(dp3138
sg67
g3132
sg60
(lp3139
g53
(g74
g55
NtRp3140
(dp3141
g58
(dp3142
g78
g79
ssg67
g3136
sg60
(lp3143
S'q'
asbag53
(g74
g55
NtRp3144
(dp3145
g58
(dp3146
g85
g86
ssg67
g3136
sg60
(lp3147
S':'
asbag53
(g74
g55
NtRp3148
(dp3149
g58
(dp3150
sg67
g3136
sg60
(lp3151
g53
(g54
g55
NtRp3152
(dp3153
g58
(dp3154
g66
I4
ssg67
g3148
sg60
(lp3155
S'test'
p3156
asbasbasbasbasbasbasbag53
(g69
g55
NtRp3157
(dp3158
g58
(dp3159
sg67
g63
sg60
(lp3160
g53
(g74
g55
NtRp3161
(dp3162
g58
(dp3163
g78
g79
ssg67
g3157
sg60
(lp3164
S'url'
p3165
asbag53
(g74
g55
NtRp3166
(dp3167
g58
(dp3168
g85
g86
ssg67
g3157
sg60
(lp3169
S':'
asbag53
(g74
g55
NtRp3170
(dp3171
g58
(dp3172
sg67
g3157
sg60
(lp3173
g53
(g54
g55
NtRp3174
(dp3175
g58
(dp3176
g66
I5
ssg67
g3170
sg60
(lp3177
S'/BingApi/default/index'
p3178
asbasbasbag53
(g69
g55
NtRp3179
(dp3180
g58
(dp3181
sg67
g63
sg60
(lp3182
g53
(g74
g55
NtRp3183
(dp3184
g58
(dp3185
g78
g79
ssg67
g3179
sg60
(lp3186
S'utcnow'
p3187
asbag53
(g74
g55
NtRp3188
(dp3189
g58
(dp3190
g85
g86
ssg67
g3179
sg60
(lp3191
S':'
asbag53
(g74
g55
NtRp3192
(dp3193
g58
(dp3194
sg67
g3179
sg60
(lp3195
g53
(g54
g55
NtRp3196
(dp3197
g58
(dp3198
g66
I5
ssg67
g3192
sg60
(lp3199
S'datetime.datetime(2013, 11, 18, 20, 11, 33, 322411)'
p3200
asbasbasbag53
(g69
g55
NtRp3201
(dp3202
g58
(dp3203
sg67
g63
sg60
(lp3204
g53
(g74
g55
NtRp3205
(dp3206
g58
(dp3207
g78
g79
ssg67
g3201
sg60
(lp3208
S'uuid'
p3209
asbag53
(g74
g55
NtRp3210
(dp3211
g58
(dp3212
g85
g86
ssg67
g3201
sg60
(lp3213
S':'
asbag53
(g74
g55
NtRp3214
(dp3215
g58
(dp3216
sg67
g3201
sg60
(lp3217
g53
(g54
g55
NtRp3218
(dp3219
g58
(dp3220
g66
I5
ssg67
g3214
sg60
(lp3221
S'BingApi/127.0.0.1.2013-11-18.14-11-33.cc2c9711-84af-4505-971e-30a99a3bf6cd'
p3222
asbasbasbag53
(g69
g55
NtRp3223
(dp3224
g58
(dp3225
sg67
g63
sg60
(lp3226
g53
(g74
g55
NtRp3227
(dp3228
g58
(dp3229
g78
g79
ssg67
g3223
sg60
(lp3230
S'vars'
p3231
asbag53
(g74
g55
NtRp3232
(dp3233
g58
(dp3234
g85
g86
ssg67
g3223
sg60
(lp3235
S':'
asbag53
(g74
g55
NtRp3236
(dp3237
g58
(dp3238
sg67
g3223
sg60
(lp3239
g53
(g54
g55
NtRp3240
(dp3241
g58
(dp3242
g66
I5
ssg67
g3236
sg60
(lp3243
g53
(g62
g55
NtRp3244
(dp3245
g58
(dp3246
g66
I4
ssg67
Nsg60
(lp3247
g53
(g69
g55
NtRp3248
(dp3249
g58
(dp3250
sg67
g3244
sg60
(lp3251
g53
(g74
g55
NtRp3252
(dp3253
g58
(dp3254
g78
g79
ssg67
g3248
sg60
(lp3255
S'q'
asbag53
(g74
g55
NtRp3256
(dp3257
g58
(dp3258
g85
g86
ssg67
g3248
sg60
(lp3259
S':'
asbag53
(g74
g55
NtRp3260
(dp3261
g58
(dp3262
sg67
g3248
sg60
(lp3263
g53
(g54
g55
NtRp3264
(dp3265
g58
(dp3266
g66
I4
ssg67
g3260
sg60
(lp3267
g3156
asbasbasbasbasbasbasbag53
(g69
g55
NtRp3268
(dp3269
g58
(dp3270
sg67
g63
sg60
(lp3271
g53
(g74
g55
NtRp3272
(dp3273
g58
(dp3274
g78
g79
ssg67
g3268
sg60
(lp3275
S'wsgi'
p3276
asbag53
(g74
g55
NtRp3277
(dp3278
g58
(dp3279
g85
g86
ssg67
g3268
sg60
(lp3280
S':'
asbag53
(g74
g55
NtRp3281
(dp3282
g58
(dp3283
sg67
g3268
sg60
(lp3284
g53
(g54
g55
NtRp3285
(dp3286
g58
(dp3287
g66
I5
ssg67
g3281
sg60
(lp3288
g53
(g62
g55
NtRp3289
(dp3290
g58
(dp3291
g66
I4
ssg67
Nsg60
(lp3292
g53
(g69
g55
NtRp3293
(dp3294
g58
(dp3295
sg67
g3289
sg60
(lp3296
g53
(g74
g55
NtRp3297
(dp3298
g58
(dp3299
g78
g79
ssg67
g3293
sg60
(lp3300
S'environ'
p3301
asbag53
(g74
g55
NtRp3302
(dp3303
g58
(dp3304
g85
g86
ssg67
g3293
sg60
(lp3305
S':'
asbag53
(g74
g55
NtRp3306
(dp3307
g58
(dp3308
sg67
g3293
sg60
(lp3309
g53
(g54
g55
NtRp3310
(dp3311
g58
(dp3312
g66
I4
ssg67
g3306
sg60
(lp3313
g53
(g62
g55
NtRp3314
(dp3315
g58
(dp3316
g66
I3
ssg67
Nsg60
(lp3317
g53
(g69
g55
NtRp3318
(dp3319
g58
(dp3320
sg67
g3314
sg60
(lp3321
g53
(g74
g55
NtRp3322
(dp3323
g58
(dp3324
g78
g79
ssg67
g3318
sg60
(lp3325
S'CONTENT_LENGTH'
p3326
asbag53
(g74
g55
NtRp3327
(dp3328
g58
(dp3329
g85
g86
ssg67
g3318
sg60
(lp3330
S':'
asbag53
(g74
g55
NtRp3331
(dp3332
g58
(dp3333
sg67
g3318
sg60
(lp3334
g53
(g54
g55
NtRp3335
(dp3336
g58
(dp3337
g66
I3
ssg67
g3331
sg60
(lp3338
g1698
asbasbasbag53
(g69
g55
NtRp3339
(dp3340
g58
(dp3341
sg67
g3314
sg60
(lp3342
g53
(g74
g55
NtRp3343
(dp3344
g58
(dp3345
g78
g79
ssg67
g3339
sg60
(lp3346
S'CONTENT_TYPE'
p3347
asbag53
(g74
g55
NtRp3348
(dp3349
g58
(dp3350
g85
g86
ssg67
g3339
sg60
(lp3351
S':'
asbag53
(g74
g55
NtRp3352
(dp3353
g58
(dp3354
sg67
g3339
sg60
(lp3355
g53
(g54
g55
NtRp3356
(dp3357
g58
(dp3358
g66
I3
ssg67
g3352
sg60
(lp3359
g1720
asbasbasbag53
(g69
g55
NtRp3360
(dp3361
g58
(dp3362
sg67
g3314
sg60
(lp3363
g53
(g74
g55
NtRp3364
(dp3365
g58
(dp3366
g78
g79
ssg67
g3360
sg60
(lp3367
S'HTTP_ACCEPT'
p3368
asbag53
(g74
g55
NtRp3369
(dp3370
g58
(dp3371
g85
g86
ssg67
g3360
sg60
(lp3372
S':'
asbag53
(g74
g55
NtRp3373
(dp3374
g58
(dp3375
sg67
g3360
sg60
(lp3376
g53
(g54
g55
NtRp3377
(dp3378
g58
(dp3379
g66
I3
ssg67
g3373
sg60
(lp3380
g1807
asbasbasbag53
(g69
g55
NtRp3381
(dp3382
g58
(dp3383
sg67
g3314
sg60
(lp3384
g53
(g74
g55
NtRp3385
(dp3386
g58
(dp3387
g78
g79
ssg67
g3381
sg60
(lp3388
S'HTTP_ACCEPT_ENCODING'
p3389
asbag53
(g74
g55
NtRp3390
(dp3391
g58
(dp3392
g85
g86
ssg67
g3381
sg60
(lp3393
S':'
asbag53
(g74
g55
NtRp3394
(dp3395
g58
(dp3396
sg67
g3381
sg60
(lp3397
g53
(g54
g55
NtRp3398
(dp3399
g58
(dp3400
g66
I3
ssg67
g3394
sg60
(lp3401
g1829
asbasbasbag53
(g69
g55
NtRp3402
(dp3403
g58
(dp3404
sg67
g3314
sg60
(lp3405
g53
(g74
g55
NtRp3406
(dp3407
g58
(dp3408
g78
g79
ssg67
g3402
sg60
(lp3409
S'HTTP_ACCEPT_LANGUAGE'
p3410
asbag53
(g74
g55
NtRp3411
(dp3412
g58
(dp3413
g85
g86
ssg67
g3402
sg60
(lp3414
S':'
asbag53
(g74
g55
NtRp3415
(dp3416
g58
(dp3417
sg67
g3402
sg60
(lp3418
g53
(g54
g55
NtRp3419
(dp3420
g58
(dp3421
g66
I3
ssg67
g3415
sg60
(lp3422
g1851
asbasbasbag53
(g69
g55
NtRp3423
(dp3424
g58
(dp3425
sg67
g3314
sg60
(lp3426
g53
(g74
g55
NtRp3427
(dp3428
g58
(dp3429
g78
g79
ssg67
g3423
sg60
(lp3430
S'HTTP_CONNECTION'
p3431
asbag53
(g74
g55
NtRp3432
(dp3433
g58
(dp3434
g85
g86
ssg67
g3423
sg60
(lp3435
S':'
asbag53
(g74
g55
NtRp3436
(dp3437
g58
(dp3438
sg67
g3423
sg60
(lp3439
g53
(g54
g55
NtRp3440
(dp3441
g58
(dp3442
g66
I3
ssg67
g3436
sg60
(lp3443
g1873
asbasbasbag53
(g69
g55
NtRp3444
(dp3445
g58
(dp3446
sg67
g3314
sg60
(lp3447
g53
(g74
g55
NtRp3448
(dp3449
g58
(dp3450
g78
g79
ssg67
g3444
sg60
(lp3451
S'HTTP_CONTENT_LENGTH'
p3452
asbag53
(g74
g55
NtRp3453
(dp3454
g58
(dp3455
g85
g86
ssg67
g3444
sg60
(lp3456
S':'
asbag53
(g74
g55
NtRp3457
(dp3458
g58
(dp3459
sg67
g3444
sg60
(lp3460
g53
(g54
g55
NtRp3461
(dp3462
g58
(dp3463
g66
I3
ssg67
g3457
sg60
(lp3464
g1698
asbasbasbag53
(g69
g55
NtRp3465
(dp3466
g58
(dp3467
sg67
g3314
sg60
(lp3468
g53
(g74
g55
NtRp3469
(dp3470
g58
(dp3471
g78
g79
ssg67
g3465
sg60
(lp3472
S'HTTP_CONTENT_TYPE'
p3473
asbag53
(g74
g55
NtRp3474
(dp3475
g58
(dp3476
g85
g86
ssg67
g3465
sg60
(lp3477
S':'
asbag53
(g74
g55
NtRp3478
(dp3479
g58
(dp3480
sg67
g3465
sg60
(lp3481
g53
(g54
g55
NtRp3482
(dp3483
g58
(dp3484
g66
I3
ssg67
g3478
sg60
(lp3485
g1720
asbasbasbag53
(g69
g55
NtRp3486
(dp3487
g58
(dp3488
sg67
g3314
sg60
(lp3489
g53
(g74
g55
NtRp3490
(dp3491
g58
(dp3492
g78
g79
ssg67
g3486
sg60
(lp3493
S'HTTP_COOKIE'
p3494
asbag53
(g74
g55
NtRp3495
(dp3496
g58
(dp3497
g85
g86
ssg67
g3486
sg60
(lp3498
S':'
asbag53
(g74
g55
NtRp3499
(dp3500
g58
(dp3501
sg67
g3486
sg60
(lp3502
g53
(g54
g55
NtRp3503
(dp3504
g58
(dp3505
g66
I3
ssg67
g3499
sg60
(lp3506
g1937
asbasbasbag53
(g69
g55
NtRp3507
(dp3508
g58
(dp3509
sg67
g3314
sg60
(lp3510
g53
(g74
g55
NtRp3511
(dp3512
g58
(dp3513
g78
g79
ssg67
g3507
sg60
(lp3514
S'HTTP_HOST'
p3515
asbag53
(g74
g55
NtRp3516
(dp3517
g58
(dp3518
g85
g86
ssg67
g3507
sg60
(lp3519
S':'
asbag53
(g74
g55
NtRp3520
(dp3521
g58
(dp3522
sg67
g3507
sg60
(lp3523
g53
(g54
g55
NtRp3524
(dp3525
g58
(dp3526
g66
I3
ssg67
g3520
sg60
(lp3527
g1959
asbasbasbag53
(g69
g55
NtRp3528
(dp3529
g58
(dp3530
sg67
g3314
sg60
(lp3531
g53
(g74
g55
NtRp3532
(dp3533
g58
(dp3534
g78
g79
ssg67
g3528
sg60
(lp3535
S'HTTP_ORIGIN'
p3536
asbag53
(g74
g55
NtRp3537
(dp3538
g58
(dp3539
g85
g86
ssg67
g3528
sg60
(lp3540
S':'
asbag53
(g74
g55
NtRp3541
(dp3542
g58
(dp3543
sg67
g3528
sg60
(lp3544
g53
(g54
g55
NtRp3545
(dp3546
g58
(dp3547
g66
I3
ssg67
g3541
sg60
(lp3548
g1981
asbasbasbag53
(g69
g55
NtRp3549
(dp3550
g58
(dp3551
sg67
g3314
sg60
(lp3552
g53
(g74
g55
NtRp3553
(dp3554
g58
(dp3555
g78
g79
ssg67
g3549
sg60
(lp3556
S'HTTP_REFERER'
p3557
asbag53
(g74
g55
NtRp3558
(dp3559
g58
(dp3560
g85
g86
ssg67
g3549
sg60
(lp3561
S':'
asbag53
(g74
g55
NtRp3562
(dp3563
g58
(dp3564
sg67
g3549
sg60
(lp3565
g53
(g54
g55
NtRp3566
(dp3567
g58
(dp3568
g66
I3
ssg67
g3562
sg60
(lp3569
g2003
asbasbasbag53
(g69
g55
NtRp3570
(dp3571
g58
(dp3572
sg67
g3314
sg60
(lp3573
g53
(g74
g55
NtRp3574
(dp3575
g58
(dp3576
g78
g79
ssg67
g3570
sg60
(lp3577
S'HTTP_USER_AGENT'
p3578
asbag53
(g74
g55
NtRp3579
(dp3580
g58
(dp3581
g85
g86
ssg67
g3570
sg60
(lp3582
S':'
asbag53
(g74
g55
NtRp3583
(dp3584
g58
(dp3585
sg67
g3570
sg60
(lp3586
g53
(g54
g55
NtRp3587
(dp3588
g58
(dp3589
g66
I3
ssg67
g3583
sg60
(lp3590
g2025
asbasbasbag53
(g69
g55
NtRp3591
(dp3592
g58
(dp3593
sg67
g3314
sg60
(lp3594
g53
(g74
g55
NtRp3595
(dp3596
g58
(dp3597
g78
g79
ssg67
g3591
sg60
(lp3598
S'PATH_INFO'
p3599
asbag53
(g74
g55
NtRp3600
(dp3601
g58
(dp3602
g85
g86
ssg67
g3591
sg60
(lp3603
S':'
asbag53
(g74
g55
NtRp3604
(dp3605
g58
(dp3606
sg67
g3591
sg60
(lp3607
g53
(g54
g55
NtRp3608
(dp3609
g58
(dp3610
g66
I3
ssg67
g3604
sg60
(lp3611
g2089
asbasbasbag53
(g69
g55
NtRp3612
(dp3613
g58
(dp3614
sg67
g3314
sg60
(lp3615
g53
(g74
g55
NtRp3616
(dp3617
g58
(dp3618
g78
g79
ssg67
g3612
sg60
(lp3619
S'QUERY_STRING'
p3620
asbag53
(g74
g55
NtRp3621
(dp3622
g58
(dp3623
g85
g86
ssg67
g3612
sg60
(lp3624
S':'
asbag53
(g74
g55
NtRp3625
(dp3626
g58
(dp3627
sg67
g3612
sg60
(lp3628
g53
(g54
g55
NtRp3629
(dp3630
g58
(dp3631
g66
I3
ssg67
g3625
sg60
(lp3632
S''
asbasbasbag53
(g69
g55
NtRp3633
(dp3634
g58
(dp3635
sg67
g3314
sg60
(lp3636
g53
(g74
g55
NtRp3637
(dp3638
g58
(dp3639
g78
g79
ssg67
g3633
sg60
(lp3640
S'REMOTE_ADDR'
p3641
asbag53
(g74
g55
NtRp3642
(dp3643
g58
(dp3644
g85
g86
ssg67
g3633
sg60
(lp3645
S':'
asbag53
(g74
g55
NtRp3646
(dp3647
g58
(dp3648
sg67
g3633
sg60
(lp3649
g53
(g54
g55
NtRp3650
(dp3651
g58
(dp3652
g66
I3
ssg67
g3646
sg60
(lp3653
g186
asbasbasbag53
(g69
g55
NtRp3654
(dp3655
g58
(dp3656
sg67
g3314
sg60
(lp3657
g53
(g74
g55
NtRp3658
(dp3659
g58
(dp3660
g78
g79
ssg67
g3654
sg60
(lp3661
S'REMOTE_PORT'
p3662
asbag53
(g74
g55
NtRp3663
(dp3664
g58
(dp3665
g85
g86
ssg67
g3654
sg60
(lp3666
S':'
asbag53
(g74
g55
NtRp3667
(dp3668
g58
(dp3669
sg67
g3654
sg60
(lp3670
g53
(g54
g55
NtRp3671
(dp3672
g58
(dp3673
g66
I3
ssg67
g3667
sg60
(lp3674
g2153
asbasbasbag53
(g69
g55
NtRp3675
(dp3676
g58
(dp3677
sg67
g3314
sg60
(lp3678
g53
(g74
g55
NtRp3679
(dp3680
g58
(dp3681
g78
g79
ssg67
g3675
sg60
(lp3682
S'REQUEST_METHOD'
p3683
asbag53
(g74
g55
NtRp3684
(dp3685
g58
(dp3686
g85
g86
ssg67
g3675
sg60
(lp3687
S':'
asbag53
(g74
g55
NtRp3688
(dp3689
g58
(dp3690
sg67
g3675
sg60
(lp3691
g53
(g54
g55
NtRp3692
(dp3693
g58
(dp3694
g66
I3
ssg67
g3688
sg60
(lp3695
g2175
asbasbasbag53
(g69
g55
NtRp3696
(dp3697
g58
(dp3698
sg67
g3314
sg60
(lp3699
g53
(g74
g55
NtRp3700
(dp3701
g58
(dp3702
g78
g79
ssg67
g3696
sg60
(lp3703
S'SCRIPT_NAME'
p3704
asbag53
(g74
g55
NtRp3705
(dp3706
g58
(dp3707
g85
g86
ssg67
g3696
sg60
(lp3708
S':'
asbag53
(g74
g55
NtRp3709
(dp3710
g58
(dp3711
sg67
g3696
sg60
(lp3712
g53
(g54
g55
NtRp3713
(dp3714
g58
(dp3715
g66
I3
ssg67
g3709
sg60
(lp3716
S''
asbasbasbag53
(g69
g55
NtRp3717
(dp3718
g58
(dp3719
sg67
g3314
sg60
(lp3720
g53
(g74
g55
NtRp3721
(dp3722
g58
(dp3723
g78
g79
ssg67
g3717
sg60
(lp3724
S'SERVER_NAME'
p3725
asbag53
(g74
g55
NtRp3726
(dp3727
g58
(dp3728
g85
g86
ssg67
g3717
sg60
(lp3729
S':'
asbag53
(g74
g55
NtRp3730
(dp3731
g58
(dp3732
sg67
g3717
sg60
(lp3733
g53
(g54
g55
NtRp3734
(dp3735
g58
(dp3736
g66
I3
ssg67
g3730
sg60
(lp3737
g2218
asbasbasbag53
(g69
g55
NtRp3738
(dp3739
g58
(dp3740
sg67
g3314
sg60
(lp3741
g53
(g74
g55
NtRp3742
(dp3743
g58
(dp3744
g78
g79
ssg67
g3738
sg60
(lp3745
S'SERVER_PORT'
p3746
asbag53
(g74
g55
NtRp3747
(dp3748
g58
(dp3749
g85
g86
ssg67
g3738
sg60
(lp3750
S':'
asbag53
(g74
g55
NtRp3751
(dp3752
g58
(dp3753
sg67
g3738
sg60
(lp3754
g53
(g54
g55
NtRp3755
(dp3756
g58
(dp3757
g66
I3
ssg67
g3751
sg60
(lp3758
g2240
asbasbasbag53
(g69
g55
NtRp3759
(dp3760
g58
(dp3761
sg67
g3314
sg60
(lp3762
g53
(g74
g55
NtRp3763
(dp3764
g58
(dp3765
g78
g79
ssg67
g3759
sg60
(lp3766
S'SERVER_PROTOCOL'
p3767
asbag53
(g74
g55
NtRp3768
(dp3769
g58
(dp3770
g85
g86
ssg67
g3759
sg60
(lp3771
S':'
asbag53
(g74
g55
NtRp3772
(dp3773
g58
(dp3774
sg67
g3759
sg60
(lp3775
g53
(g54
g55
NtRp3776
(dp3777
g58
(dp3778
g66
I3
ssg67
g3772
sg60
(lp3779
g2262
asbasbasbag53
(g69
g55
NtRp3780
(dp3781
g58
(dp3782
sg67
g3314
sg60
(lp3783
g53
(g74
g55
NtRp3784
(dp3785
g58
(dp3786
g78
g79
ssg67
g3780
sg60
(lp3787
S'SERVER_SOFTWARE'
p3788
asbag53
(g74
g55
NtRp3789
(dp3790
g58
(dp3791
g85
g86
ssg67
g3780
sg60
(lp3792
S':'
asbag53
(g74
g55
NtRp3793
(dp3794
g58
(dp3795
sg67
g3780
sg60
(lp3796
g53
(g54
g55
NtRp3797
(dp3798
g58
(dp3799
g66
I3
ssg67
g3793
sg60
(lp3800
g2284
asbasbasbag53
(g69
g55
NtRp3801
(dp3802
g58
(dp3803
sg67
g3314
sg60
(lp3804
g53
(g74
g55
NtRp3805
(dp3806
g58
(dp3807
g78
g79
ssg67
g3801
sg60
(lp3808
S'wsgi.errors'
p3809
asbag53
(g74
g55
NtRp3810
(dp3811
g58
(dp3812
g85
g86
ssg67
g3801
sg60
(lp3813
S':'
asbag53
(g74
g55
NtRp3814
(dp3815
g58
(dp3816
sg67
g3801
sg60
(lp3817
g53
(g54
g55
NtRp3818
(dp3819
g58
(dp3820
g66
I3
ssg67
g3814
sg60
(lp3821
S"<open file '<stderr>', mode 'w' at 0x16a0b0>"
p3822
asbasbasbag53
(g69
g55
NtRp3823
(dp3824
g58
(dp3825
sg67
g3314
sg60
(lp3826
g53
(g74
g55
NtRp3827
(dp3828
g58
(dp3829
g78
g79
ssg67
g3823
sg60
(lp3830
S'wsgi.file_wrapper'
p3831
asbag53
(g74
g55
NtRp3832
(dp3833
g58
(dp3834
g85
g86
ssg67
g3823
sg60
(lp3835
S':'
asbag53
(g74
g55
NtRp3836
(dp3837
g58
(dp3838
sg67
g3823
sg60
(lp3839
g53
(g54
g55
NtRp3840
(dp3841
g58
(dp3842
g66
I3
ssg67
g3836
sg60
(lp3843
S'<class wsgiref.util.FileWrapper at 0x73a600>'
p3844
asbasbasbag53
(g69
g55
NtRp3845
(dp3846
g58
(dp3847
sg67
g3314
sg60
(lp3848
g53
(g74
g55
NtRp3849
(dp3850
g58
(dp3851
g78
g79
ssg67
g3845
sg60
(lp3852
S'wsgi.input'
p3853
asbag53
(g74
g55
NtRp3854
(dp3855
g58
(dp3856
g85
g86
ssg67
g3845
sg60
(lp3857
S':'
asbag53
(g74
g55
NtRp3858
(dp3859
g58
(dp3860
sg67
g3845
sg60
(lp3861
g53
(g54
g55
NtRp3862
(dp3863
g58
(dp3864
g66
I3
ssg67
g3858
sg60
(lp3865
S"<open file '<fdopen>', mode 'w+b' at 0x6f0188>"
p3866
asbasbasbag53
(g69
g55
NtRp3867
(dp3868
g58
(dp3869
sg67
g3314
sg60
(lp3870
g53
(g74
g55
NtRp3871
(dp3872
g58
(dp3873
g78
g79
ssg67
g3867
sg60
(lp3874
S'wsgi.multiprocess'
p3875
asbag53
(g74
g55
NtRp3876
(dp3877
g58
(dp3878
g85
g86
ssg67
g3867
sg60
(lp3879
S':'
asbag53
(g74
g55
NtRp3880
(dp3881
g58
(dp3882
sg67
g3867
sg60
(lp3883
g53
(g54
g55
NtRp3884
(dp3885
g58
(dp3886
g66
I3
ssg67
g3880
sg60
(lp3887
g96
asbasbasbag53
(g69
g55
NtRp3888
(dp3889
g58
(dp3890
sg67
g3314
sg60
(lp3891
g53
(g74
g55
NtRp3892
(dp3893
g58
(dp3894
g78
g79
ssg67
g3888
sg60
(lp3895
S'wsgi.multithread'
p3896
asbag53
(g74
g55
NtRp3897
(dp3898
g58
(dp3899
g85
g86
ssg67
g3888
sg60
(lp3900
S':'
asbag53
(g74
g55
NtRp3901
(dp3902
g58
(dp3903
sg67
g3888
sg60
(lp3904
g53
(g54
g55
NtRp3905
(dp3906
g58
(dp3907
g66
I3
ssg67
g3901
sg60
(lp3908
g2524
asbasbasbag53
(g69
g55
NtRp3909
(dp3910
g58
(dp3911
sg67
g3314
sg60
(lp3912
g53
(g74
g55
NtRp3913
(dp3914
g58
(dp3915
g78
g79
ssg67
g3909
sg60
(lp3916
S'wsgi.run_once'
p3917
asbag53
(g74
g55
NtRp3918
(dp3919
g58
(dp3920
g85
g86
ssg67
g3909
sg60
(lp3921
S':'
asbag53
(g74
g55
NtRp3922
(dp3923
g58
(dp3924
sg67
g3909
sg60
(lp3925
g53
(g54
g55
NtRp3926
(dp3927
g58
(dp3928
g66
I3
ssg67
g3922
sg60
(lp3929
g96
asbasbasbag53
(g69
g55
NtRp3930
(dp3931
g58
(dp3932
sg67
g3314
sg60
(lp3933
g53
(g74
g55
NtRp3934
(dp3935
g58
(dp3936
g78
g79
ssg67
g3930
sg60
(lp3937
S'wsgi.url_scheme'
p3938
asbag53
(g74
g55
NtRp3939
(dp3940
g58
(dp3941
g85
g86
ssg67
g3930
sg60
(lp3942
S':'
asbag53
(g74
g55
NtRp3943
(dp3944
g58
(dp3945
sg67
g3930
sg60
(lp3946
g53
(g54
g55
NtRp3947
(dp3948
g58
(dp3949
g66
I3
ssg67
g3943
sg60
(lp3950
g2567
asbasbasbag53
(g69
g55
NtRp3951
(dp3952
g58
(dp3953
sg67
g3314
sg60
(lp3954
g53
(g74
g55
NtRp3955
(dp3956
g58
(dp3957
g78
g79
ssg67
g3951
sg60
(lp3958
S'wsgi.version'
p3959
asbag53
(g74
g55
NtRp3960
(dp3961
g58
(dp3962
g85
g86
ssg67
g3951
sg60
(lp3963
S':'
asbag53
(g74
g55
NtRp3964
(dp3965
g58
(dp3966
sg67
g3951
sg60
(lp3967
g53
(g54
g55
NtRp3968
(dp3969
g58
(dp3970
g66
I3
ssg67
g3964
sg60
(lp3971
S'1'
asbasbasbasbasbasbasbasbasbasbasbasbasbsS'frames'
p3972
(lp3973
(dp3974
S'file'
p3975
S'/Users/massimodipierro/Dropbox/web2py-appliances/web2py/gluon/restricted.py'
p3976
sS'dump'
p3977
(dp3978
S'environment'
p3979
S"{'A': <class 'gluon.html.A'>, 'Auth': <class 'gluon.tools.Auth'>, 'B': <class 'gluon.html.B'>, 'BEAUTIFY': <class 'gluon.html.BEAUTIFY'>, 'BING_APPID': '25187A3B438492061BC2B82AB10E1D7394F0EB82', 'BODY': <class 'gluon.html.BODY'>, 'BR': <class 'gluon.html.BR'>, 'BUTTON': <class 'gluon.html.BUTTON'>, 'Bing': <class 'applications.BingApi.modules.bingapi_w.Bing'>, 'CAT': <class 'gluon.html.CAT'>, ...}"
p3980
sS'ccode'
p3981
S'<code object <module> at 0x6f6ad0, file "/Users/...ications/BingApi/controllers/default.py", line 9>'
p3982
ssS'lnum'
p3983
I204
sS'lines'
p3984
(dp3985
I199
S'    try:'
p3986
sI200
S'        if type(code) == types.CodeType:'
p3987
sI201
S'            ccode = code'
p3988
sI202
S'        else:'
p3989
sI203
S'            ccode = compile2(code,layer)'
p3990
sI204
S'        exec ccode in environment'
p3991
sI205
S'    except HTTP:'
p3992
sI206
S'        raise'
p3993
sI207
S'    except RestrictedError:'
p3994
sI208
S'        # do not encapsulate (obfuscate) the original RestrictedError'
p3995
ssS'call'
p3996
S"(code='################################################...uest,db)\\n\\nresponse._vars=response._caller(index)\\n', environment={'A': <class 'gluon.html.A'>, 'Auth': <class 'gluon.tools.Auth'>, 'B': <class 'gluon.html.B'>, 'BEAUTIFY': <class 'gluon.html.BEAUTIFY'>, 'BING_APPID': '25187A3B438492061BC2B82AB10E1D7394F0EB82', 'BODY': <class 'gluon.html.BODY'>, 'BR': <class 'gluon.html.BR'>, 'BUTTON': <class 'gluon.html.BUTTON'>, 'Bing': <class 'applications.BingApi.modules.bingapi_w.Bing'>, 'CAT': <class 'gluon.html.CAT'>, ...}, layer='/Users/massimodipierro/Dropbox/web2py-appliances/web2py/applications/BingApi/controllers/default.py')"
p3997
sS'func'
p3998
S'restricted'
p3999
sa(dp4000
g3975
S'/Users/massimodipierro/Dropbox/web2py-appliances/web2py/applications/BingApi/controllers/default.py'
p4001
sg3977
(dp4002
sg3983
I36
sg3984
(dp4003
I32
S'    http://..../[app]/default/download/[filename]'
p4004
sI33
S'    """'
p4005
sI34
S'    return response.download(request,db)'
p4006
sI25
S'        res = bing.do_web_search(request.vars.q)'
p4007
sI26
S"        items = res['SearchResponse']['Web']['Results']"
p4008
sI27
S'    return dict(form=form,items=items)'
p4009
sI28
S''
sI29
S'def download():'
p4010
sI30
S'    """'
p4011
sI31
S'    allows downloading of uploaded files'
p4012
ssg3996
S'()'
p4013
sg3998
S'<module>'
p4014
sa(dp4015
g3975
S'/Users/massimodipierro/Dropbox/web2py-appliances/web2py/gluon/globals.py'
p4016
sg3977
(dp4017
S'self'
p4018
S'undefined'
p4019
sS'f'
S'<function index at 0x712a30>'
p4020
ssg3983
I172
sg3984
(dp4021
I167
S'        self.meta = Storage()      # used by web2py_ajax.html'
p4022
sI168
S'        self.menu = []             # used by the default view layout'
p4023
sI169
S'        self.files = []            # used by web2py_ajax.html'
p4024
sI170
S'        self.generic_patterns = [] # patterns to allow generic views'
p4025
sI171
S'        self._vars = None'
p4026
sI172
S'        self._caller = lambda f: f()'
p4027
sI173
S'        self._view_environment = None'
p4028
sI174
S'        self._custom_commit = None'
p4029
sI175
S'        self._custom_rollback = None'
p4030
sI176
S''
ssg3996
S'(f=<function index at 0x712a30>)'
p4031
sg3998
S'<lambda>'
p4032
sa(dp4033
g3975
S'/Users/massimodipierro/Dropbox/web2py-appliances/web2py/applications/BingApi/controllers/default.py'
p4034
sg3977
(dp4035
S'global request'
p4036
S"<Storage {'body': <open file '<fdopen>', mode 'w...09-95bd-7db471a81563', '_formname': 'default'}>}>"
p4037
sS'res'
p4038
g4019
sS'bing'
p4039
S'<applications.BingApi.modules.bingapi_w.Bing object at 0x723350>'
p4040
sS'request.vars.q'
p4041
S"'test'"
p4042
sS'bing.do_web_search'
p4043
S'<bound method Bing.do_web_search of <application...ngApi.modules.bingapi_w.Bing object at 0x723350>>'
p4044
sS'request.vars'
p4045
S"<Storage {'q': 'test', '_formkey': '2aae5d5d-c26c-4a09-95bd-7db471a81563', '_formname': 'default'}>"
p4046
ssg3983
I25
sg3984
(dp4047
I20
S"    form=FORM(INPUT(_name='q',requires=IS_NOT_EMPTY()),"
p4048
sI21
S"              INPUT(_type='submit',_value='Search'))"
p4049
sI22
S'    items=[]'
p4050
sI23
S'    if form.accepts(request,session):'
p4051
sI24
S'        bing = Bing(BING_APPID)'
p4052
sI25
S'        res = bing.do_web_search(request.vars.q)'
p4053
sI26
S"        items = res['SearchResponse']['Web']['Results']"
p4054
sI27
S'    return dict(form=form,items=items)'
p4055
sI28
S''
sI29
S'def download():'
p4056
ssg3996
S'()'
p4057
sg3998
g2682
sa(dp4058
g3975
S'/Users/massimodipierro/Dropbox/web2py-appliances/web2py/applications/BingApi/modules/bingapi_w.py'
p4059
sg3977
(dp4060
S'extra_args'
p4061
g41
sS'query'
p4062
S"'test'"
p4063
sS'self'
p4064
S'<applications.BingApi.modules.bingapi_w.Bing object at 0x723350>'
p4065
sS'self.talk_to_bing'
p4066
S'<bound method Bing.talk_to_bing of <applications.BingApi.modules.bingapi_w.Bing object at 0x723350>>'
p4067
sS'sources'
p4068
g4019
ssg3983
I54
sg3984
(dp4069
I49
S'            raise BingException(error_text)'
p4070
sI50
S"        logging.info('data:%s'%data)"
p4071
sI51
S'        return data'
p4072
sI52
S''
sI53
S'    def do_web_search(self, query, extra_args={}):'
p4073
sI54
S"        return self.talk_to_bing(query, sources='web', extra_args=extra_args)"
p4074
sI55
S''
sI56
S'    def do_image_search(self, query, extra_args={}):'
p4075
sI57
S"        return self.talk_to_bing(query, sources='image', extra_args=extra_args)"
p4076
sI58
S''
ssg3996
S"(self=<applications.BingApi.modules.bingapi_w.Bing object at 0x723350>, query='test', extra_args={})"
p4077
sg3998
S'do_web_search'
p4078
sa(dp4079
g3975
S'/Users/massimodipierro/Dropbox/web2py-appliances/web2py/applications/BingApi/modules/bingapi_w.py'
p4080
sg3977
(dp4081
S'global BingException'
p4082
S"<class 'applications.BingApi.modules.bingapi_w.BingException'>"
p4083
sS'error_text'
p4084
S"u'AppID is not functioning properly. Please refer to the HelpUrl to get more information.'"
p4085
ssg3983
I49
sg3984
(dp4086
I44
S"            logging.info('Error')"
p4087
sI45
S"            logging.info('data:%s'%data)"
p4088
sI46
S"            data = data['SearchResponse']"
p4089
sI47
S"            errors_list = [el['Message'] for el in data['Errors']]"
p4090
sI48
S"            error_text = ','.join(errors_list)"
p4091
sI49
S'            raise BingException(error_text)'
p4092
sI50
S"        logging.info('data:%s'%data)"
p4093
sI51
S'        return data'
p4094
sI52
S''
sI53
S'    def do_web_search(self, query, extra_args={}):'
p4095
ssg3996
S"(self=<applications.BingApi.modules.bingapi_w.Bing object at 0x723350>, query='test', sources='web', extra_args={})"
p4096
sg3998
S'talk_to_bing'
p4097
sasS'pyver'
p4098
S'Python 2.5.6: /usr/bin/python2.5'
p4099
sS'session'
p4100
g53
(g54
g55
NtRp4101
(dp4102
g58
(dp4103
sg60
(lp4104
g53
(g62
g55
NtRp4105
(dp4106
g58
(dp4107
g66
I5
ssg67
Nsg60
(lp4108
sbasbsS'etype'
p4109
S"<class 'applications.BingApi.modules.bingapi_w.BingException'>"
p4110
sS'date'
p4111
S'Mon Nov 18 14:11:33 2013'
p4112
sS'response'
p4113
g53
(g54
g55
NtRp4114
(dp4115
g58
(dp4116
sg60
(lp4117
g53
(g62
g55
NtRp4118
(dp4119
g58
(dp4120
g66
I5
ssg67
Nsg60
(lp4121
g53
(g69
g55
NtRp4122
(dp4123
g58
(dp4124
sg67
g4118
sg60
(lp4125
g53
(g74
g55
NtRp4126
(dp4127
g58
(dp4128
g78
g79
ssg67
g4122
sg60
(lp4129
g151
asbag53
(g74
g55
NtRp4130
(dp4131
g58
(dp4132
g85
g86
ssg67
g4122
sg60
(lp4133
S':'
asbag53
(g74
g55
NtRp4134
(dp4135
g58
(dp4136
sg67
g4122
sg60
(lp4137
g53
(g54
g55
NtRp4138
(dp4139
g58
(dp4140
g66
I5
ssg67
g4134
sg60
(lp4141
S'<cStringIO.StringO object at 0x6f8420>'
p4142
asbasbasbag53
(g69
g55
NtRp4143
(dp4144
g58
(dp4145
sg67
g4118
sg60
(lp4146
g53
(g74
g55
NtRp4147
(dp4148
g58
(dp4149
g78
g79
ssg67
g4143
sg60
(lp4150
g217
asbag53
(g74
g55
NtRp4151
(dp4152
g58
(dp4153
g85
g86
ssg67
g4143
sg60
(lp4154
S':'
asbag53
(g74
g55
NtRp4155
(dp4156
g58
(dp4157
sg67
g4143
sg60
(lp4158
g53
(g54
g55
NtRp4159
(dp4160
g58
(dp4161
g66
I5
ssg67
g4155
sg60
(lp4162
g53
(g62
g55
NtRp4163
(dp4164
g58
(dp4165
g66
I4
ssg67
Nsg60
(lp4166
g53
(g69
g55
NtRp4167
(dp4168
g58
(dp4169
sg67
g4163
sg60
(lp4170
g53
(g74
g55
NtRp4171
(dp4172
g58
(dp4173
g78
g79
ssg67
g4167
sg60
(lp4174
S'session_id_bingapi'
p4175
asbag53
(g74
g55
NtRp4176
(dp4177
g58
(dp4178
g85
g86
ssg67
g4167
sg60
(lp4179
S':'
asbag53
(g74
g55
NtRp4180
(dp4181
g58
(dp4182
sg67
g4167
sg60
(lp4183
g53
(g54
g55
NtRp4184
(dp4185
g58
(dp4186
g66
I4
ssg67
g4180
sg60
(lp4187
g53
(g62
g55
NtRp4188
(dp4189
g58
(dp4190
g66
I3
ssg67
Nsg60
(lp4191
g53
(g69
g55
NtRp4192
(dp4193
g58
(dp4194
sg67
g4188
sg60
(lp4195
g53
(g74
g55
NtRp4196
(dp4197
g58
(dp4198
g78
g79
ssg67
g4192
sg60
(lp4199
g267
asbag53
(g74
g55
NtRp4200
(dp4201
g58
(dp4202
g85
g86
ssg67
g4192
sg60
(lp4203
S':'
asbag53
(g74
g55
NtRp4204
(dp4205
g58
(dp4206
sg67
g4192
sg60
(lp4207
g53
(g54
g55
NtRp4208
(dp4209
g58
(dp4210
g66
I3
ssg67
g4204
sg60
(lp4211
S''
asbasbasbag53
(g69
g55
NtRp4212
(dp4213
g58
(dp4214
sg67
g4188
sg60
(lp4215
g53
(g74
g55
NtRp4216
(dp4217
g58
(dp4218
g78
g79
ssg67
g4212
sg60
(lp4219
g288
asbag53
(g74
g55
NtRp4220
(dp4221
g58
(dp4222
g85
g86
ssg67
g4212
sg60
(lp4223
S':'
asbag53
(g74
g55
NtRp4224
(dp4225
g58
(dp4226
sg67
g4212
sg60
(lp4227
g53
(g54
g55
NtRp4228
(dp4229
g58
(dp4230
g66
I3
ssg67
g4224
sg60
(lp4231
S''
asbasbasbag53
(g69
g55
NtRp4232
(dp4233
g58
(dp4234
sg67
g4188
sg60
(lp4235
g53
(g74
g55
NtRp4236
(dp4237
g58
(dp4238
g78
g79
ssg67
g4232
sg60
(lp4239
g309
asbag53
(g74
g55
NtRp4240
(dp4241
g58
(dp4242
g85
g86
ssg67
g4232
sg60
(lp4243
S':'
asbag53
(g74
g55
NtRp4244
(dp4245
g58
(dp4246
sg67
g4232
sg60
(lp4247
g53
(g54
g55
NtRp4248
(dp4249
g58
(dp4250
g66
I3
ssg67
g4244
sg60
(lp4251
S''
asbasbasbag53
(g69
g55
NtRp4252
(dp4253
g58
(dp4254
sg67
g4188
sg60
(lp4255
g53
(g74
g55
NtRp4256
(dp4257
g58
(dp4258
g78
g79
ssg67
g4252
sg60
(lp4259
g330
asbag53
(g74
g55
NtRp4260
(dp4261
g58
(dp4262
g85
g86
ssg67
g4252
sg60
(lp4263
S':'
asbag53
(g74
g55
NtRp4264
(dp4265
g58
(dp4266
sg67
g4252
sg60
(lp4267
g53
(g54
g55
NtRp4268
(dp4269
g58
(dp4270
g66
I3
ssg67
g4264
sg60
(lp4271
S''
asbasbasbag53
(g69
g55
NtRp4272
(dp4273
g58
(dp4274
sg67
g4188
sg60
(lp4275
g53
(g74
g55
NtRp4276
(dp4277
g58
(dp4278
g78
g79
ssg67
g4272
sg60
(lp4279
g351
asbag53
(g74
g55
NtRp4280
(dp4281
g58
(dp4282
g85
g86
ssg67
g4272
sg60
(lp4283
S':'
asbag53
(g74
g55
NtRp4284
(dp4285
g58
(dp4286
sg67
g4272
sg60
(lp4287
g53
(g54
g55
NtRp4288
(dp4289
g58
(dp4290
g66
I3
ssg67
g4284
sg60
(lp4291
S'/'
asbasbasbag53
(g69
g55
NtRp4292
(dp4293
g58
(dp4294
sg67
g4188
sg60
(lp4295
g53
(g74
g55
NtRp4296
(dp4297
g58
(dp4298
g78
g79
ssg67
g4292
sg60
(lp4299
g372
asbag53
(g74
g55
NtRp4300
(dp4301
g58
(dp4302
g85
g86
ssg67
g4292
sg60
(lp4303
S':'
asbag53
(g74
g55
NtRp4304
(dp4305
g58
(dp4306
sg67
g4292
sg60
(lp4307
g53
(g54
g55
NtRp4308
(dp4309
g58
(dp4310
g66
I3
ssg67
g4304
sg60
(lp4311
S''
asbasbasbag53
(g69
g55
NtRp4312
(dp4313
g58
(dp4314
sg67
g4188
sg60
(lp4315
g53
(g74
g55
NtRp4316
(dp4317
g58
(dp4318
g78
g79
ssg67
g4312
sg60
(lp4319
g393
asbag53
(g74
g55
NtRp4320
(dp4321
g58
(dp4322
g85
g86
ssg67
g4312
sg60
(lp4323
S':'
asbag53
(g74
g55
NtRp4324
(dp4325
g58
(dp4326
sg67
g4312
sg60
(lp4327
g53
(g54
g55
NtRp4328
(dp4329
g58
(dp4330
g66
I3
ssg67
g4324
sg60
(lp4331
S''
asbasbasbasbasbasbasbasbasbasbasbag53
(g69
g55
NtRp4332
(dp4333
g58
(dp4334
sg67
g4118
sg60
(lp4335
g53
(g74
g55
NtRp4336
(dp4337
g58
(dp4338
g78
g79
ssg67
g4332
sg60
(lp4339
S'files'
p4340
asbag53
(g74
g55
NtRp4341
(dp4342
g58
(dp4343
g85
g86
ssg67
g4332
sg60
(lp4344
S':'
asbag53
(g74
g55
NtRp4345
(dp4346
g58
(dp4347
sg67
g4332
sg60
(lp4348
g53
(g54
g55
NtRp4349
(dp4350
g58
(dp4351
g66
I5
ssg67
g4345
sg60
(lp4352
g53
(g62
g55
NtRp4353
(dp4354
g58
(dp4355
g66
I4
ssg67
Nsg60
(lp4356
sbasbasbasbag53
(g69
g55
NtRp4357
(dp4358
g58
(dp4359
sg67
g4118
sg60
(lp4360
g53
(g74
g55
NtRp4361
(dp4362
g58
(dp4363
g78
g79
ssg67
g4357
sg60
(lp4364
S'flash'
p4365
asbag53
(g74
g55
NtRp4366
(dp4367
g58
(dp4368
g85
g86
ssg67
g4357
sg60
(lp4369
S':'
asbag53
(g74
g55
NtRp4370
(dp4371
g58
(dp4372
sg67
g4357
sg60
(lp4373
g53
(g54
g55
NtRp4374
(dp4375
g58
(dp4376
g66
I5
ssg67
g4370
sg60
(lp4377
S''
asbasbasbag53
(g69
g55
NtRp4378
(dp4379
g58
(dp4380
sg67
g4118
sg60
(lp4381
g53
(g74
g55
NtRp4382
(dp4383
g58
(dp4384
g78
g79
ssg67
g4378
sg60
(lp4385
S'generic_patterns'
p4386
asbag53
(g74
g55
NtRp4387
(dp4388
g58
(dp4389
g85
g86
ssg67
g4378
sg60
(lp4390
S':'
asbag53
(g74
g55
NtRp4391
(dp4392
g58
(dp4393
sg67
g4378
sg60
(lp4394
g53
(g54
g55
NtRp4395
(dp4396
g58
(dp4397
g66
I5
ssg67
g4391
sg60
(lp4398
g53
(g62
g55
NtRp4399
(dp4400
g58
(dp4401
g66
I4
ssg67
Nsg60
(lp4402
sbasbasbasbag53
(g69
g55
NtRp4403
(dp4404
g58
(dp4405
sg67
g4118
sg60
(lp4406
g53
(g74
g55
NtRp4407
(dp4408
g58
(dp4409
g78
g79
ssg67
g4403
sg60
(lp4410
S'headers'
p4411
asbag53
(g74
g55
NtRp4412
(dp4413
g58
(dp4414
g85
g86
ssg67
g4403
sg60
(lp4415
S':'
asbag53
(g74
g55
NtRp4416
(dp4417
g58
(dp4418
sg67
g4403
sg60
(lp4419
g53
(g54
g55
NtRp4420
(dp4421
g58
(dp4422
g66
I5
ssg67
g4416
sg60
(lp4423
g53
(g62
g55
NtRp4424
(dp4425
g58
(dp4426
g66
I4
ssg67
Nsg60
(lp4427
g53
(g69
g55
NtRp4428
(dp4429
g58
(dp4430
sg67
g4424
sg60
(lp4431
g53
(g74
g55
NtRp4432
(dp4433
g58
(dp4434
g78
g79
ssg67
g4428
sg60
(lp4435
S'Cache-Control'
p4436
asbag53
(g74
g55
NtRp4437
(dp4438
g58
(dp4439
g85
g86
ssg67
g4428
sg60
(lp4440
S':'
asbag53
(g74
g55
NtRp4441
(dp4442
g58
(dp4443
sg67
g4428
sg60
(lp4444
g53
(g54
g55
NtRp4445
(dp4446
g58
(dp4447
g66
I4
ssg67
g4441
sg60
(lp4448
S'no-store, no-cache, must-revalidate, post-check=0, pre-check=0'
p4449
asbasbasbag53
(g69
g55
NtRp4450
(dp4451
g58
(dp4452
sg67
g4424
sg60
(lp4453
g53
(g74
g55
NtRp4454
(dp4455
g58
(dp4456
g78
g79
ssg67
g4450
sg60
(lp4457
S'Content-Type'
p4458
asbag53
(g74
g55
NtRp4459
(dp4460
g58
(dp4461
g85
g86
ssg67
g4450
sg60
(lp4462
S':'
asbag53
(g74
g55
NtRp4463
(dp4464
g58
(dp4465
sg67
g4450
sg60
(lp4466
g53
(g54
g55
NtRp4467
(dp4468
g58
(dp4469
g66
I4
ssg67
g4463
sg60
(lp4470
S'text/html; charset=utf-8'
p4471
asbasbasbag53
(g69
g55
NtRp4472
(dp4473
g58
(dp4474
sg67
g4424
sg60
(lp4475
g53
(g74
g55
NtRp4476
(dp4477
g58
(dp4478
g78
g79
ssg67
g4472
sg60
(lp4479
S'Expires'
p4480
asbag53
(g74
g55
NtRp4481
(dp4482
g58
(dp4483
g85
g86
ssg67
g4472
sg60
(lp4484
S':'
asbag53
(g74
g55
NtRp4485
(dp4486
g58
(dp4487
sg67
g4472
sg60
(lp4488
g53
(g54
g55
NtRp4489
(dp4490
g58
(dp4491
g66
I4
ssg67
g4485
sg60
(lp4492
S'Mon, 18 Nov 2013 20:11:33 GMT'
p4493
asbasbasbag53
(g69
g55
NtRp4494
(dp4495
g58
(dp4496
sg67
g4424
sg60
(lp4497
g53
(g74
g55
NtRp4498
(dp4499
g58
(dp4500
g78
g79
ssg67
g4494
sg60
(lp4501
S'Pragma'
p4502
asbag53
(g74
g55
NtRp4503
(dp4504
g58
(dp4505
g85
g86
ssg67
g4494
sg60
(lp4506
S':'
asbag53
(g74
g55
NtRp4507
(dp4508
g58
(dp4509
sg67
g4494
sg60
(lp4510
g53
(g54
g55
NtRp4511
(dp4512
g58
(dp4513
g66
I4
ssg67
g4507
sg60
(lp4514
S'no-cache'
p4515
asbasbasbag53
(g69
g55
NtRp4516
(dp4517
g58
(dp4518
sg67
g4424
sg60
(lp4519
g53
(g74
g55
NtRp4520
(dp4521
g58
(dp4522
g78
g79
ssg67
g4516
sg60
(lp4523
S'X-Powered-By'
p4524
asbag53
(g74
g55
NtRp4525
(dp4526
g58
(dp4527
g85
g86
ssg67
g4516
sg60
(lp4528
S':'
asbag53
(g74
g55
NtRp4529
(dp4530
g58
(dp4531
sg67
g4516
sg60
(lp4532
g53
(g54
g55
NtRp4533
(dp4534
g58
(dp4535
g66
I4
ssg67
g4529
sg60
(lp4536
S'web2py'
p4537
asbasbasbasbasbasbasbag53
(g69
g55
NtRp4538
(dp4539
g58
(dp4540
sg67
g4118
sg60
(lp4541
g53
(g74
g55
NtRp4542
(dp4543
g58
(dp4544
g78
g79
ssg67
g4538
sg60
(lp4545
S'menu'
p4546
asbag53
(g74
g55
NtRp4547
(dp4548
g58
(dp4549
g85
g86
ssg67
g4538
sg60
(lp4550
S':'
asbag53
(g74
g55
NtRp4551
(dp4552
g58
(dp4553
sg67
g4538
sg60
(lp4554
g53
(g54
g55
NtRp4555
(dp4556
g58
(dp4557
g66
I5
ssg67
g4551
sg60
(lp4558
g53
(g62
g55
NtRp4559
(dp4560
g58
(dp4561
g66
I4
ssg67
Nsg60
(lp4562
sbasbasbasbag53
(g69
g55
NtRp4563
(dp4564
g58
(dp4565
sg67
g4118
sg60
(lp4566
g53
(g74
g55
NtRp4567
(dp4568
g58
(dp4569
g78
g79
ssg67
g4563
sg60
(lp4570
S'meta'
p4571
asbag53
(g74
g55
NtRp4572
(dp4573
g58
(dp4574
g85
g86
ssg67
g4563
sg60
(lp4575
S':'
asbag53
(g74
g55
NtRp4576
(dp4577
g58
(dp4578
sg67
g4563
sg60
(lp4579
g53
(g54
g55
NtRp4580
(dp4581
g58
(dp4582
g66
I5
ssg67
g4576
sg60
(lp4583
g53
(g62
g55
NtRp4584
(dp4585
g58
(dp4586
g66
I4
ssg67
Nsg60
(lp4587
sbasbasbasbag53
(g69
g55
NtRp4588
(dp4589
g58
(dp4590
sg67
g4118
sg60
(lp4591
g53
(g74
g55
NtRp4592
(dp4593
g58
(dp4594
g78
g79
ssg67
g4588
sg60
(lp4595
S'postprocessing'
p4596
asbag53
(g74
g55
NtRp4597
(dp4598
g58
(dp4599
g85
g86
ssg67
g4588
sg60
(lp4600
S':'
asbag53
(g74
g55
NtRp4601
(dp4602
g58
(dp4603
sg67
g4588
sg60
(lp4604
g53
(g54
g55
NtRp4605
(dp4606
g58
(dp4607
g66
I5
ssg67
g4601
sg60
(lp4608
g53
(g62
g55
NtRp4609
(dp4610
g58
(dp4611
g66
I4
ssg67
Nsg60
(lp4612
sbasbasbasbag53
(g69
g55
NtRp4613
(dp4614
g58
(dp4615
sg67
g4118
sg60
(lp4616
g53
(g74
g55
NtRp4617
(dp4618
g58
(dp4619
g78
g79
ssg67
g4613
sg60
(lp4620
S'session_file'
p4621
asbag53
(g74
g55
NtRp4622
(dp4623
g58
(dp4624
g85
g86
ssg67
g4613
sg60
(lp4625
S':'
asbag53
(g74
g55
NtRp4626
(dp4627
g58
(dp4628
sg67
g4613
sg60
(lp4629
g53
(g54
g55
NtRp4630
(dp4631
g58
(dp4632
g66
I5
ssg67
g4626
sg60
(lp4633
S"<open file '/Users/massimodipierro/Dropbox/web2py-appliances/web2py/applications/BingApi/sessions/127.0.0.1-91382949-3545-4aa4-9370-ee4a261cc623', mode 'rb+' at 0x6f6e78>"
p4634
asbasbasbag53
(g69
g55
NtRp4635
(dp4636
g58
(dp4637
sg67
g4118
sg60
(lp4638
g53
(g74
g55
NtRp4639
(dp4640
g58
(dp4641
g78
g79
ssg67
g4635
sg60
(lp4642
S'session_filename'
p4643
asbag53
(g74
g55
NtRp4644
(dp4645
g58
(dp4646
g85
g86
ssg67
g4635
sg60
(lp4647
S':'
asbag53
(g74
g55
NtRp4648
(dp4649
g58
(dp4650
sg67
g4635
sg60
(lp4651
g53
(g54
g55
NtRp4652
(dp4653
g58
(dp4654
g66
I5
ssg67
g4648
sg60
(lp4655
S'/Users/massimodipierro/Dropbox/web2py-appliances/web2py/applications/BingApi/sessions/127.0.0.1-91382949-3545-4aa4-9370-ee4a261cc623'
p4656
asbasbasbag53
(g69
g55
NtRp4657
(dp4658
g58
(dp4659
sg67
g4118
sg60
(lp4660
g53
(g74
g55
NtRp4661
(dp4662
g58
(dp4663
g78
g79
ssg67
g4657
sg60
(lp4664
S'session_id'
p4665
asbag53
(g74
g55
NtRp4666
(dp4667
g58
(dp4668
g85
g86
ssg67
g4657
sg60
(lp4669
S':'
asbag53
(g74
g55
NtRp4670
(dp4671
g58
(dp4672
sg67
g4657
sg60
(lp4673
g53
(g54
g55
NtRp4674
(dp4675
g58
(dp4676
g66
I5
ssg67
g4670
sg60
(lp4677
S'127.0.0.1-91382949-3545-4aa4-9370-ee4a261cc623'
p4678
asbasbasbag53
(g69
g55
NtRp4679
(dp4680
g58
(dp4681
sg67
g4118
sg60
(lp4682
g53
(g74
g55
NtRp4683
(dp4684
g58
(dp4685
g78
g79
ssg67
g4679
sg60
(lp4686
S'session_id_name'
p4687
asbag53
(g74
g55
NtRp4688
(dp4689
g58
(dp4690
g85
g86
ssg67
g4679
sg60
(lp4691
S':'
asbag53
(g74
g55
NtRp4692
(dp4693
g58
(dp4694
sg67
g4679
sg60
(lp4695
g53
(g54
g55
NtRp4696
(dp4697
g58
(dp4698
g66
I5
ssg67
g4692
sg60
(lp4699
g4175
asbasbasbag53
(g69
g55
NtRp4700
(dp4701
g58
(dp4702
sg67
g4118
sg60
(lp4703
g53
(g74
g55
NtRp4704
(dp4705
g58
(dp4706
g78
g79
ssg67
g4700
sg60
(lp4707
S'session_locked'
p4708
asbag53
(g74
g55
NtRp4709
(dp4710
g58
(dp4711
g85
g86
ssg67
g4700
sg60
(lp4712
S':'
asbag53
(g74
g55
NtRp4713
(dp4714
g58
(dp4715
sg67
g4700
sg60
(lp4716
g53
(g54
g55
NtRp4717
(dp4718
g58
(dp4719
g66
I5
ssg67
g4713
sg60
(lp4720
g2524
asbasbasbag53
(g69
g55
NtRp4721
(dp4722
g58
(dp4723
sg67
g4118
sg60
(lp4724
g53
(g74
g55
NtRp4725
(dp4726
g58
(dp4727
g78
g79
ssg67
g4721
sg60
(lp4728
S'session_new'
p4729
asbag53
(g74
g55
NtRp4730
(dp4731
g58
(dp4732
g85
g86
ssg67
g4721
sg60
(lp4733
S':'
asbag53
(g74
g55
NtRp4734
(dp4735
g58
(dp4736
sg67
g4721
sg60
(lp4737
g53
(g54
g55
NtRp4738
(dp4739
g58
(dp4740
g66
I5
ssg67
g4734
sg60
(lp4741
g96
asbasbasbag53
(g69
g55
NtRp4742
(dp4743
g58
(dp4744
sg67
g4118
sg60
(lp4745
g53
(g74
g55
NtRp4746
(dp4747
g58
(dp4748
g78
g79
ssg67
g4742
sg60
(lp4749
S'status'
p4750
asbag53
(g74
g55
NtRp4751
(dp4752
g58
(dp4753
g85
g86
ssg67
g4742
sg60
(lp4754
S':'
asbag53
(g74
g55
NtRp4755
(dp4756
g58
(dp4757
sg67
g4742
sg60
(lp4758
g53
(g54
g55
NtRp4759
(dp4760
g58
(dp4761
g66
I5
ssg67
g4755
sg60
(lp4762
S'200'
p4763
asbasbasbag53
(g69
g55
NtRp4764
(dp4765
g58
(dp4766
sg67
g4118
sg60
(lp4767
g53
(g74
g55
NtRp4768
(dp4769
g58
(dp4770
g78
g79
ssg67
g4764
sg60
(lp4771
S'subtitle'
p4772
asbag53
(g74
g55
NtRp4773
(dp4774
g58
(dp4775
g85
g86
ssg67
g4764
sg60
(lp4776
S':'
asbag53
(g74
g55
NtRp4777
(dp4778
g58
(dp4779
sg67
g4764
sg60
(lp4780
g53
(g54
g55
NtRp4781
(dp4782
g58
(dp4783
g66
I5
ssg67
g4777
sg60
(lp4784
S'Full Web Search from web2py'
p4785
asbasbasbag53
(g69
g55
NtRp4786
(dp4787
g58
(dp4788
sg67
g4118
sg60
(lp4789
g53
(g74
g55
NtRp4790
(dp4791
g58
(dp4792
g78
g79
ssg67
g4786
sg60
(lp4793
S'title'
p4794
asbag53
(g74
g55
NtRp4795
(dp4796
g58
(dp4797
g85
g86
ssg67
g4786
sg60
(lp4798
S':'
asbag53
(g74
g55
NtRp4799
(dp4800
g58
(dp4801
sg67
g4786
sg60
(lp4802
g53
(g54
g55
NtRp4803
(dp4804
g58
(dp4805
g66
I5
ssg67
g4799
sg60
(lp4806
S'Bing Interface'
p4807
asbasbasbag53
(g69
g55
NtRp4808
(dp4809
g58
(dp4810
sg67
g4118
sg60
(lp4811
g53
(g74
g55
NtRp4812
(dp4813
g58
(dp4814
g78
g79
ssg67
g4808
sg60
(lp4815
g3209
asbag53
(g74
g55
NtRp4816
(dp4817
g58
(dp4818
g85
g86
ssg67
g4808
sg60
(lp4819
S':'
asbag53
(g74
g55
NtRp4820
(dp4821
g58
(dp4822
sg67
g4808
sg60
(lp4823
g53
(g54
g55
NtRp4824
(dp4825
g58
(dp4826
g66
I5
ssg67
g4820
sg60
(lp4827
g3222
asbasbasbag53
(g69
g55
NtRp4828
(dp4829
g58
(dp4830
sg67
g4118
sg60
(lp4831
g53
(g74
g55
NtRp4832
(dp4833
g58
(dp4834
g78
g79
ssg67
g4828
sg60
(lp4835
S'view'
p4836
asbag53
(g74
g55
NtRp4837
(dp4838
g58
(dp4839
g85
g86
ssg67
g4828
sg60
(lp4840
S':'
asbag53
(g74
g55
NtRp4841
(dp4842
g58
(dp4843
sg67
g4828
sg60
(lp4844
g53
(g54
g55
NtRp4845
(dp4846
g58
(dp4847
g66
I5
ssg67
g4841
sg60
(lp4848
S'default/index.html'
p4849
asbasbasbasbasbsS'locals'
p4850
(dp4851
S'el'
p4852
S"{u'Code': 2001, u'HelpUrl': u'http://msdn.microsoft.com/en-us/library/dd251042.aspx', u'Message': u'AppID is not functioning properly. Please refer to the HelpUrl to get more information.'}"
p4853
sS'final_url'
p4854
S"'http://api.search.live.net/json.aspx?Appid=25187...061BC2B82AB10E1D7394F0EB82&query=test&sources=web'"
p4855
sS'self'
p4856
S'<applications.BingApi.modules.bingapi_w.Bing object at 0x723350>'
p4857
sS'extra_args'
p4858
g41
sS'sources'
p4859
S"'web'"
p4860
sS'json'
p4861
S'r\'{"SearchResponse":{"Version":"2.2","Query":{"Sea...microsoft.com\\/en-us\\/library\\/dd251042.aspx"}]}}\''
p4862
sS'errors_list'
p4863
S"[u'AppID is not functioning properly. Please refer to the HelpUrl to get more information.']"
p4864
sS'query_string'
p4865
S"'query=test&sources=web'"
p4866
sS'query'
p4867
S"'test'"
p4868
sS'data'
p4869
S"{u'Errors': [{u'Code': 2001, u'HelpUrl': u'http://msdn.microsoft.com/en-us/library/dd251042.aspx', u'Message': u'AppID is not functioning properly. Please refer to the HelpUrl to get more information.'}], u'Query': {u'SearchTerms': u'test'}, u'Version': u'2.2'}"
p4870
sS'payload'
p4871
S"{'query': 'test', 'sources': 'web'}"
p4872
sS'error_text'
p4873
S"u'AppID is not functioning properly. Please refer to the HelpUrl to get more information.'"
p4874
sssS'traceback'
p4875
S'Traceback (most recent call last):\n  File "/Users/massimodipierro/Dropbox/web2py-appliances/web2py/gluon/restricted.py", line 204, in restricted\n    exec ccode in environment\n  File "/Users/massimodipierro/Dropbox/web2py-appliances/web2py/applications/BingApi/controllers/default.py", line 36, in <module>\n  File "/Users/massimodipierro/Dropbox/web2py-appliances/web2py/gluon/globals.py", line 172, in <lambda>\n    self._caller = lambda f: f()\n  File "/Users/massimodipierro/Dropbox/web2py-appliances/web2py/applications/BingApi/controllers/default.py", line 25, in index\n    res = bing.do_web_search(request.vars.q)\n  File "applications/BingApi/modules/bingapi_w.py", line 54, in do_web_search\n    return self.talk_to_bing(query, sources=\'web\', extra_args=extra_args)\n  File "applications/BingApi/modules/bingapi_w.py", line 49, in talk_to_bing\n    raise BingException(error_text)\nBingException: AppID is not functioning properly. Please refer to the HelpUrl to get more information.\n'
p4876
s.